
main.elf:     file format elf32-littleriscv


Disassembly of section .init:

00000000 <InterruptVector>:
   0:	5e40006f          	j	5e4 <handle_reset>
   4:	00000000          	.word	0x00000000
   8:	0000065a          	.word	0x0000065a
   c:	00000658          	.word	0x00000658
	...
  30:	00000658          	.word	0x00000658
  34:	00000000          	.word	0x00000000
  38:	00000658          	.word	0x00000658
  3c:	00000000          	.word	0x00000000
  40:	00000658          	.word	0x00000658
  44:	00000658          	.word	0x00000658
  48:	00000658          	.word	0x00000658
  4c:	00000658          	.word	0x00000658
  50:	00000658          	.word	0x00000658
  54:	00000658          	.word	0x00000658
  58:	00000658          	.word	0x00000658
  5c:	00000658          	.word	0x00000658
  60:	00000658          	.word	0x00000658
  64:	00000658          	.word	0x00000658
  68:	00000658          	.word	0x00000658
  6c:	00000658          	.word	0x00000658
  70:	00000658          	.word	0x00000658
  74:	00000658          	.word	0x00000658
  78:	00000658          	.word	0x00000658
  7c:	00000658          	.word	0x00000658
  80:	00000658          	.word	0x00000658
  84:	00000658          	.word	0x00000658
  88:	00000658          	.word	0x00000658
  8c:	00000658          	.word	0x00000658
  90:	00000658          	.word	0x00000658
  94:	00000658          	.word	0x00000658
  98:	00000658          	.word	0x00000658
  9c:	0000                	unimp
	...

Disassembly of section .text:

000000a0 <__mulsi3>:
      a0:	862a                	mv	a2,a0
      a2:	4501                	li	a0,0
      a4:	0015f693          	andi	a3,a1,1
      a8:	c291                	beqz	a3,ac <__mulsi3+0xc>
      aa:	9532                	add	a0,a0,a2
      ac:	8185                	srli	a1,a1,0x1
      ae:	0606                	slli	a2,a2,0x1
      b0:	f9f5                	bnez	a1,a4 <__mulsi3+0x4>
      b2:	8082                	ret
      b4:	0000                	unimp
	...

000000b8 <__divsi3>:
      b8:	02054e63          	bltz	a0,f4 <__umodsi3+0x8>
      bc:	0405c363          	bltz	a1,102 <__umodsi3+0x16>

000000c0 <__hidden___udivsi3>:
      c0:	862e                	mv	a2,a1
      c2:	85aa                	mv	a1,a0
      c4:	557d                	li	a0,-1
      c6:	c215                	beqz	a2,ea <__hidden___udivsi3+0x2a>
      c8:	4685                	li	a3,1
      ca:	00b67863          	bgeu	a2,a1,da <__hidden___udivsi3+0x1a>
      ce:	00c05663          	blez	a2,da <__hidden___udivsi3+0x1a>
      d2:	0606                	slli	a2,a2,0x1
      d4:	0686                	slli	a3,a3,0x1
      d6:	feb66ce3          	bltu	a2,a1,ce <__hidden___udivsi3+0xe>
      da:	4501                	li	a0,0
      dc:	00c5e463          	bltu	a1,a2,e4 <__hidden___udivsi3+0x24>
      e0:	8d91                	sub	a1,a1,a2
      e2:	8d55                	or	a0,a0,a3
      e4:	8285                	srli	a3,a3,0x1
      e6:	8205                	srli	a2,a2,0x1
      e8:	faf5                	bnez	a3,dc <__hidden___udivsi3+0x1c>
      ea:	8082                	ret

000000ec <__umodsi3>:
      ec:	8286                	mv	t0,ra
      ee:	3fc9                	jal	c0 <__hidden___udivsi3>
      f0:	852e                	mv	a0,a1
      f2:	8282                	jr	t0
      f4:	40a00533          	neg	a0,a0
      f8:	00b04763          	bgtz	a1,106 <__umodsi3+0x1a>
      fc:	40b005b3          	neg	a1,a1
     100:	b7c1                	j	c0 <__hidden___udivsi3>
     102:	40b005b3          	neg	a1,a1
     106:	8286                	mv	t0,ra
     108:	3f65                	jal	c0 <__hidden___udivsi3>
     10a:	40a00533          	neg	a0,a0
     10e:	8282                	jr	t0

00000110 <__modsi3>:
     110:	8286                	mv	t0,ra
     112:	0005c763          	bltz	a1,120 <__modsi3+0x10>
     116:	00054963          	bltz	a0,128 <__modsi3+0x18>
     11a:	375d                	jal	c0 <__hidden___udivsi3>
     11c:	852e                	mv	a0,a1
     11e:	8282                	jr	t0
     120:	40b005b3          	neg	a1,a1
     124:	fe055be3          	bgez	a0,11a <__modsi3+0xa>
     128:	40a00533          	neg	a0,a0
     12c:	3f51                	jal	c0 <__hidden___udivsi3>
     12e:	40b00533          	neg	a0,a1
     132:	8282                	jr	t0
	...

00000136 <_puts>:
     136:	832a                	mv	t1,a0
     138:	852e                	mv	a0,a1
     13a:	ce01                	beqz	a2,152 <_puts+0x1c>
     13c:	00062283          	lw	t0,0(a2)
     140:	4701                	li	a4,0
     142:	425c                	lw	a5,4(a2)
     144:	00a74863          	blt	a4,a0,154 <_puts+0x1e>
     148:	00078023          	sb	zero,0(a5)
     14c:	4248                	lw	a0,4(a2)
     14e:	40550533          	sub	a0,a0,t0
     152:	8082                	ret
     154:	460c                	lw	a1,8(a2)
     156:	4214                	lw	a3,0(a2)
     158:	15fd                	addi	a1,a1,-1
     15a:	96ae                	add	a3,a3,a1
     15c:	fed786e3          	beq	a5,a3,148 <_puts+0x12>
     160:	00178693          	addi	a3,a5,1
     164:	c254                	sw	a3,4(a2)
     166:	00e306b3          	add	a3,t1,a4
     16a:	0006c683          	lbu	a3,0(a3)
     16e:	0705                	addi	a4,a4,1
     170:	00d78023          	sb	a3,0(a5)
     174:	b7f9                	j	142 <_puts+0xc>

00000176 <mini_pad>:
     176:	c699                	beqz	a3,184 <mini_pad+0xe>
     178:	4301                	li	t1,0
     17a:	00b6d763          	bge	a3,a1,188 <mini_pad+0x12>
     17e:	85b6                	mv	a1,a3
     180:	4305                	li	t1,1
     182:	a019                	j	188 <mini_pad+0x12>
     184:	4301                	li	t1,0
     186:	86ae                	mv	a3,a1
     188:	8e8d                	sub	a3,a3,a1
     18a:	87ba                	mv	a5,a4
     18c:	00e683b3          	add	t2,a3,a4
     190:	40f382b3          	sub	t0,t2,a5
     194:	04504a63          	bgtz	t0,1e8 <mini_pad+0x72>
     198:	fff6c793          	not	a5,a3
     19c:	87fd                	srai	a5,a5,0x1f
     19e:	8efd                	and	a3,a3,a5
     1a0:	96ba                	add	a3,a3,a4
     1a2:	4781                	li	a5,0
     1a4:	40f58633          	sub	a2,a1,a5
     1a8:	00f682b3          	add	t0,a3,a5
     1ac:	04c04263          	bgtz	a2,1f0 <mini_pad+0x7a>
     1b0:	fff5c793          	not	a5,a1
     1b4:	87fd                	srai	a5,a5,0x1f
     1b6:	8dfd                	and	a1,a1,a5
     1b8:	95b6                	add	a1,a1,a3
     1ba:	40e58533          	sub	a0,a1,a4
     1be:	02030463          	beqz	t1,1e6 <mini_pad+0x70>
     1c2:	02b77263          	bgeu	a4,a1,1e6 <mini_pad+0x70>
     1c6:	02a00793          	li	a5,42
     1ca:	fef58fa3          	sb	a5,-1(a1)
     1ce:	fff58693          	addi	a3,a1,-1
     1d2:	00d77a63          	bgeu	a4,a3,1e6 <mini_pad+0x70>
     1d6:	fef58f23          	sb	a5,-2(a1)
     1da:	ffe58693          	addi	a3,a1,-2
     1de:	00d77463          	bgeu	a4,a3,1e6 <mini_pad+0x70>
     1e2:	fef58ea3          	sb	a5,-3(a1)
     1e6:	8082                	ret
     1e8:	0785                	addi	a5,a5,1
     1ea:	fec78fa3          	sb	a2,-1(a5)
     1ee:	b74d                	j	190 <mini_pad+0x1a>
     1f0:	00f50633          	add	a2,a0,a5
     1f4:	00064603          	lbu	a2,0(a2)
     1f8:	0785                	addi	a5,a5,1
     1fa:	00c28023          	sb	a2,0(t0)
     1fe:	b75d                	j	1a4 <mini_pad+0x2e>

00000200 <DelaySysTick>:
     200:	e000f737          	lui	a4,0xe000f
     204:	471c                	lw	a5,8(a4)
     206:	953e                	add	a0,a0,a5
     208:	471c                	lw	a5,8(a4)
     20a:	8f89                	sub	a5,a5,a0
     20c:	fe07cee3          	bltz	a5,208 <DelaySysTick+0x8>
     210:	8082                	ret

00000212 <mini_itoa.part.0>:
     212:	1101                	addi	sp,sp,-32
     214:	ce06                	sw	ra,28(sp)
     216:	cc22                	sw	s0,24(sp)
     218:	ca26                	sw	s1,20(sp)
     21a:	c002                	sw	zero,0(sp)
     21c:	832a                	mv	t1,a0
     21e:	00055763          	bgez	a0,22c <mini_itoa.part.0+0x1a>
     222:	e689                	bnez	a3,22c <mini_itoa.part.0+0x1a>
     224:	4785                	li	a5,1
     226:	40a00333          	neg	t1,a0
     22a:	c03e                	sw	a5,0(sp)
     22c:	8a05                	andi	a2,a2,1
     22e:	06100413          	li	s0,97
     232:	c219                	beqz	a2,238 <mini_itoa.part.0+0x26>
     234:	04100413          	li	s0,65
     238:	84ba                	mv	s1,a4
     23a:	1459                	addi	s0,s0,-10
     23c:	851a                	mv	a0,t1
     23e:	c83a                	sw	a4,16(sp)
     240:	c21a                	sw	t1,4(sp)
     242:	c62e                	sw	a1,12(sp)
     244:	c41a                	sw	t1,8(sp)
     246:	355d                	jal	ec <__umodsi3>
     248:	47a5                	li	a5,9
     24a:	4322                	lw	t1,8(sp)
     24c:	45b2                	lw	a1,12(sp)
     24e:	4742                	lw	a4,16(sp)
     250:	0ff57693          	zext.b	a3,a0
     254:	06a7e163          	bltu	a5,a0,2b6 <mini_itoa.part.0+0xa4>
     258:	03068693          	addi	a3,a3,48
     25c:	0ff6f693          	zext.b	a3,a3
     260:	00148793          	addi	a5,s1,1
     264:	00d48023          	sb	a3,0(s1)
     268:	851a                	mv	a0,t1
     26a:	c83a                	sw	a4,16(sp)
     26c:	c63e                	sw	a5,12(sp)
     26e:	c42e                	sw	a1,8(sp)
     270:	3d81                	jal	c0 <__hidden___udivsi3>
     272:	4692                	lw	a3,4(sp)
     274:	45a2                	lw	a1,8(sp)
     276:	47b2                	lw	a5,12(sp)
     278:	4742                	lw	a4,16(sp)
     27a:	832a                	mv	t1,a0
     27c:	02b6fb63          	bgeu	a3,a1,2b2 <mini_itoa.part.0+0xa0>
     280:	4682                	lw	a3,0(sp)
     282:	c699                	beqz	a3,290 <mini_itoa.part.0+0x7e>
     284:	02d00693          	li	a3,45
     288:	00d78023          	sb	a3,0(a5)
     28c:	00248793          	addi	a5,s1,2
     290:	40e78533          	sub	a0,a5,a4
     294:	01f55693          	srli	a3,a0,0x1f
     298:	96aa                	add	a3,a3,a0
     29a:	00078023          	sb	zero,0(a5)
     29e:	8685                	srai	a3,a3,0x1
     2a0:	4601                	li	a2,0
     2a2:	17fd                	addi	a5,a5,-1
     2a4:	00d64b63          	blt	a2,a3,2ba <mini_itoa.part.0+0xa8>
     2a8:	40f2                	lw	ra,28(sp)
     2aa:	4462                	lw	s0,24(sp)
     2ac:	44d2                	lw	s1,20(sp)
     2ae:	6105                	addi	sp,sp,32
     2b0:	8082                	ret
     2b2:	84be                	mv	s1,a5
     2b4:	b761                	j	23c <mini_itoa.part.0+0x2a>
     2b6:	96a2                	add	a3,a3,s0
     2b8:	b755                	j	25c <mini_itoa.part.0+0x4a>
     2ba:	00c705b3          	add	a1,a4,a2
     2be:	0007c283          	lbu	t0,0(a5)
     2c2:	0005c303          	lbu	t1,0(a1)
     2c6:	0605                	addi	a2,a2,1
     2c8:	00558023          	sb	t0,0(a1)
     2cc:	00678023          	sb	t1,0(a5)
     2d0:	bfc9                	j	2a2 <mini_itoa.part.0+0x90>

000002d2 <ssd1306_i2c_setup>:
void ssd1306_i2c_setup(void)
{
	uint16_t tempreg;
	
	// Reset I2C1 to init all regs
	RCC->APB1PRSTR |= RCC_APB1Periph_I2C1;
     2d2:	400217b7          	lui	a5,0x40021
     2d6:	4b98                	lw	a4,16(a5)
     2d8:	002006b7          	lui	a3,0x200
     2dc:	8f55                	or	a4,a4,a3
     2de:	cb98                	sw	a4,16(a5)
	RCC->APB1PRSTR &= ~RCC_APB1Periph_I2C1;
     2e0:	4b98                	lw	a4,16(a5)
     2e2:	ffe006b7          	lui	a3,0xffe00
     2e6:	16fd                	addi	a3,a3,-1 # ffdfffff <__global_pointer$+0xdfdff7ff>
     2e8:	8f75                	and	a4,a4,a3
     2ea:	cb98                	sw	a4,16(a5)
	
	// set freq
	tempreg = I2C1->CTLR2;
     2ec:	400057b7          	lui	a5,0x40005
     2f0:	4047d703          	lhu	a4,1028(a5) # 40005404 <__global_pointer$+0x20004c04>
	tempreg &= ~I2C_CTLR2_FREQ;
     2f4:	66c1                	lui	a3,0x10
     2f6:	fc068693          	addi	a3,a3,-64 # ffc0 <main.c.5e928d26+0xd718>
     2fa:	8f75                	and	a4,a4,a3
	tempreg |= (FUNCONF_SYSTEM_CORE_CLOCK/SSD1306_I2C_PRERATE)&I2C_CTLR2_FREQ;
     2fc:	01876713          	ori	a4,a4,24
	I2C1->CTLR2 = tempreg;
     300:	40e79223          	sh	a4,1028(a5)
	tempreg = (FUNCONF_SYSTEM_CORE_CLOCK/(25*SSD1306_I2C_CLKRATE))&I2C_CKCFGR_CCR;
	tempreg |= I2C_CKCFGR_DUTY;
#endif
	tempreg |= I2C_CKCFGR_FS;
#endif
	I2C1->CKCFGR = tempreg;
     304:	7771                	lui	a4,0xffffc
     306:	0705                	addi	a4,a4,1 # ffffc001 <__global_pointer$+0xdfffb801>
     308:	40e79e23          	sh	a4,1052(a5)
	// initialize the state
	ssd1306_i2c_irq_state = 0;
#endif
	
	// Enable I2C
	I2C1->CTLR1 |= I2C_CTLR1_PE;
     30c:	4007d703          	lhu	a4,1024(a5)
     310:	00176713          	ori	a4,a4,1
     314:	40e79023          	sh	a4,1024(a5)

	// set ACK mode
	I2C1->CTLR1 |= I2C_CTLR1_ACK;
     318:	4007d703          	lhu	a4,1024(a5)
     31c:	40076713          	ori	a4,a4,1024
     320:	40e79023          	sh	a4,1024(a5)
}
     324:	8082                	ret

00000326 <get_random>:
int get_random(int num)
{
	uint8_t bit;
	uint32_t new_data;
	
	for(bit=0;bit<NOISE_BITS;bit++)
     326:	20000637          	lui	a2,0x20000
     32a:	00062783          	lw	a5,0(a2) # 20000000 <lfsr>
{
     32e:	1171                	addi	sp,sp,-4
     330:	c006                	sw	ra,0(sp)
     332:	46a1                	li	a3,8
	{
		new_data = ((lfsr>>NOISE_POLY_TAP0) ^
					(lfsr>>NOISE_POLY_TAP1) ^
     334:	0157d593          	srli	a1,a5,0x15
		new_data = ((lfsr>>NOISE_POLY_TAP0) ^
     338:	01f7d713          	srli	a4,a5,0x1f
     33c:	8f2d                	xor	a4,a4,a1
     33e:	8f3d                	xor	a4,a4,a5
					(lfsr>>NOISE_POLY_TAP2) ^
     340:	0017d593          	srli	a1,a5,0x1
		new_data = ((lfsr>>NOISE_POLY_TAP0) ^
     344:	8f2d                	xor	a4,a4,a1
	for(bit=0;bit<NOISE_BITS;bit++)
     346:	16fd                	addi	a3,a3,-1
					(lfsr>>NOISE_POLY_TAP3));
		lfsr = (lfsr<<1) | (new_data&1);
     348:	8b05                	andi	a4,a4,1
     34a:	0786                	slli	a5,a5,0x1
	for(bit=0;bit<NOISE_BITS;bit++)
     34c:	0ff6f693          	zext.b	a3,a3
		lfsr = (lfsr<<1) | (new_data&1);
     350:	8fd9                	or	a5,a5,a4
	for(bit=0;bit<NOISE_BITS;bit++)
     352:	f2ed                	bnez	a3,334 <get_random+0xe>
	}

  int random_8 = lfsr&NOISE_MASK;
	return random_8 % (num + 1);
     354:	00150593          	addi	a1,a0,1
     358:	0ff7f513          	zext.b	a0,a5
     35c:	00f62023          	sw	a5,0(a2)
     360:	3b45                	jal	110 <__modsi3>
}
     362:	4082                	lw	ra,0(sp)
     364:	0111                	addi	sp,sp,4
     366:	8082                	ret

00000368 <ssd1306_drawstr_sz.constprop.0>:
}

/*
 * draw a string to the display buffer, scaled to size
 */
void ssd1306_drawstr_sz(uint8_t x, uint8_t y, char *str, uint8_t color, font_size_t font_size)
     368:	1121                	addi	sp,sp,-24
     36a:	0016c793          	xori	a5,a3,1
     36e:	c826                	sw	s1,16(sp)
     370:	ca22                	sw	s0,20(sp)
     372:	c22e                	sw	a1,4(sp)
     374:	84b6                	mv	s1,a3
     376:	c63e                	sw	a5,12(sp)
{
	uint8_t c;
	
	while((c=*str++))
     378:	00064783          	lbu	a5,0(a2)
     37c:	0605                	addi	a2,a2,1
     37e:	c3d5                	beqz	a5,422 <ssd1306_drawstr_sz.constprop.0+0xba>
        d = fontdata[(chr << 3) + i];
     380:	078e                	slli	a5,a5,0x3
     382:	4581                	li	a1,0
     384:	c43e                	sw	a5,8(sp)
     386:	47a2                	lw	a5,8(sp)
     388:	6705                	lui	a4,0x1
     38a:	2c470713          	addi	a4,a4,708 # 12c4 <fontdata>
     38e:	97ae                	add	a5,a5,a1
     390:	97ba                	add	a5,a5,a4
     392:	0007c303          	lbu	t1,0(a5)
                    ssd1306_drawPixel(x + (j * font_scale) + k, y + (i * font_scale) + l, col);
     396:	4792                	lw	a5,4(sp)
     398:	200006b7          	lui	a3,0x20000
     39c:	02868693          	addi	a3,a3,40 # 20000028 <ssd1306_buffer>
     3a0:	00b78733          	add	a4,a5,a1
     3a4:	0ff77713          	zext.b	a4,a4
	addr = x + SSD1306_W*(y/8);
     3a8:	00375793          	srli	a5,a4,0x3
     3ac:	079e                	slli	a5,a5,0x7
     3ae:	97aa                	add	a5,a5,a0
     3b0:	07c2                	slli	a5,a5,0x10
     3b2:	83c1                	srli	a5,a5,0x10
		ssd1306_buffer[addr] |= (1<<(y&7));
     3b4:	8b1d                	andi	a4,a4,7
     3b6:	97b6                	add	a5,a5,a3
     3b8:	4685                	li	a3,1
     3ba:	00e696b3          	sll	a3,a3,a4
		ssd1306_buffer[addr] &= ~(1<<(y&7));
     3be:	fff6c713          	not	a4,a3
     3c2:	0ff77713          	zext.b	a4,a4
     3c6:	c03a                	sw	a4,0(sp)
     3c8:	0ff6f693          	zext.b	a3,a3
        for (j = 0; j < 8; j++)
     3cc:	4701                	li	a4,0
            if (d & 0x80)
     3ce:	01831293          	slli	t0,t1,0x18
     3d2:	4182d293          	srai	t0,t0,0x18
     3d6:	8426                	mv	s0,s1
     3d8:	0002c363          	bltz	t0,3de <ssd1306_drawstr_sz.constprop.0+0x76>
     3dc:	4432                	lw	s0,12(sp)
		ssd1306_buffer[addr] |= (1<<(y&7));
     3de:	0007c383          	lbu	t2,0(a5)
		ssd1306_buffer[addr] &= ~(1<<(y&7));
     3e2:	4282                	lw	t0,0(sp)
     3e4:	0072f2b3          	and	t0,t0,t2
	if(color)
     3e8:	c019                	beqz	s0,3ee <ssd1306_drawstr_sz.constprop.0+0x86>
		ssd1306_buffer[addr] |= (1<<(y&7));
     3ea:	0076e2b3          	or	t0,a3,t2
        for (j = 0; j < 8; j++)
     3ee:	0705                	addi	a4,a4,1
     3f0:	0742                	slli	a4,a4,0x10
		ssd1306_buffer[addr] |= (1<<(y&7));
     3f2:	00578023          	sb	t0,0(a5)
            d <<= 1;
     3f6:	0306                	slli	t1,t1,0x1
        for (j = 0; j < 8; j++)
     3f8:	8341                	srli	a4,a4,0x10
     3fa:	4421                	li	s0,8
            d <<= 1;
     3fc:	0ff37313          	zext.b	t1,t1
        for (j = 0; j < 8; j++)
     400:	0785                	addi	a5,a5,1
     402:	fc8716e3          	bne	a4,s0,3ce <ssd1306_drawstr_sz.constprop.0+0x66>
    for (i = 0; i < 8; i++)
     406:	0585                	addi	a1,a1,1
     408:	f6e59fe3          	bne	a1,a4,386 <ssd1306_drawstr_sz.constprop.0+0x1e>
	{
		ssd1306_drawchar_sz(x, y, c, color, font_size);
		x += 8 * font_size;
		if(x>128 - 8 * font_size)
     40c:	008507b3          	add	a5,a0,s0
     410:	01079513          	slli	a0,a5,0x10
     414:	07800713          	li	a4,120
     418:	0ff7f793          	zext.b	a5,a5
     41c:	8141                	srli	a0,a0,0x10
     41e:	f4f77de3          	bgeu	a4,a5,378 <ssd1306_drawstr_sz.constprop.0+0x10>
			break;
	}
}
     422:	4452                	lw	s0,20(sp)
     424:	44c2                	lw	s1,16(sp)
     426:	0161                	addi	sp,sp,24
     428:	8082                	ret

0000042a <ssd1306_drawImage.constprop.0>:
void ssd1306_drawImage(int x, int y, const unsigned char* input, uint8_t width, uint8_t height, uint8_t color_mode) {
     42a:	fd810113          	addi	sp,sp,-40
     42e:	0036d793          	srli	a5,a3,0x3
     432:	0f86f693          	andi	a3,a3,248
     436:	c63e                	sw	a5,12(sp)
     438:	00a687b3          	add	a5,a3,a0
     43c:	d022                	sw	s0,32(sp)
     43e:	d206                	sw	ra,36(sp)
     440:	ce26                	sw	s1,28(sp)
     442:	c02a                	sw	a0,0(sp)
     444:	c82e                	sw	a1,16(sp)
     446:	ca32                	sw	a2,20(sp)
     448:	cc3a                	sw	a4,24(sp)
     44a:	c43e                	sw	a5,8(sp)
	for (uint8_t line = 0; line < height; line++) {
     44c:	4401                	li	s0,0
     44e:	47e2                	lw	a5,24(sp)
     450:	00f46863          	bltu	s0,a5,460 <ssd1306_drawImage.constprop.0+0x36>
}
     454:	5092                	lw	ra,36(sp)
     456:	5402                	lw	s0,32(sp)
     458:	44f2                	lw	s1,28(sp)
     45a:	02810113          	addi	sp,sp,40
     45e:	8082                	ret
		y_absolute = y + line;
     460:	47c2                	lw	a5,16(sp)
     462:	00f404b3          	add	s1,s0,a5
    if (y_absolute < 0) {
     466:	0004d663          	bgez	s1,472 <ssd1306_drawImage.constprop.0+0x48>
	for (uint8_t line = 0; line < height; line++) {
     46a:	0405                	addi	s0,s0,1
     46c:	0ff47413          	zext.b	s0,s0
     470:	bff9                	j	44e <ssd1306_drawImage.constprop.0+0x24>
		if (y_absolute >= SSD1306_H || y_absolute < 0) {
     472:	03f00793          	li	a5,63
     476:	fc97efe3          	bltu	a5,s1,454 <ssd1306_drawImage.constprop.0+0x2a>
			uint8_t input_byte = input[byte + line * bytes_to_draw];
     47a:	45b2                	lw	a1,12(sp)
		uint8_t v_mask = 1 << (y_absolute & 7);
     47c:	0074f793          	andi	a5,s1,7
     480:	4705                	li	a4,1
     482:	00f717b3          	sll	a5,a4,a5
			uint8_t input_byte = input[byte + line * bytes_to_draw];
     486:	8522                	mv	a0,s0
		uint8_t v_mask = 1 << (y_absolute & 7);
     488:	c23e                	sw	a5,4(sp)
			uint8_t input_byte = input[byte + line * bytes_to_draw];
     48a:	3919                	jal	a0 <__mulsi3>
     48c:	47d2                	lw	a5,20(sp)
		for (uint8_t byte = 0; byte < bytes_to_draw; byte++) {
     48e:	4622                	lw	a2,8(sp)
				buffer_addr = x_absolute + SSD1306_W * (y_absolute / 8);
     490:	848d                	srai	s1,s1,0x3
     492:	953e                	add	a0,a0,a5
     494:	049e                	slli	s1,s1,0x7
		for (uint8_t byte = 0; byte < bytes_to_draw; byte++) {
     496:	4782                	lw	a5,0(sp)
     498:	fcc789e3          	beq	a5,a2,46a <ssd1306_drawImage.constprop.0+0x40>
			uint8_t input_byte = input[byte + line * bytes_to_draw];
     49c:	00054383          	lbu	t2,0(a0)
     4a0:	4701                	li	a4,0
			for (pixel = 0; pixel < 8; pixel++) {
     4a2:	42a1                	li	t0,8
				if (x_absolute >= SSD1306_W) {
     4a4:	00e607b3          	add	a5,a2,a4
     4a8:	07f00693          	li	a3,127
     4ac:	04f6c363          	blt	a3,a5,4f2 <ssd1306_drawImage.constprop.0+0xc8>
				buffer_addr = x_absolute + SSD1306_W * (y_absolute / 8);
     4b0:	97a6                	add	a5,a5,s1
						ssd1306_buffer[buffer_addr] = (ssd1306_buffer[buffer_addr] & ~v_mask) | (input_pixel ? v_mask : 0);
     4b2:	200006b7          	lui	a3,0x20000
     4b6:	07c2                	slli	a5,a5,0x10
     4b8:	83c1                	srli	a5,a5,0x10
     4ba:	02868593          	addi	a1,a3,40 # 20000028 <ssd1306_buffer>
     4be:	95be                	add	a1,a1,a5
     4c0:	00410303          	lb	t1,4(sp)
     4c4:	0005c683          	lbu	a3,0(a1)
     4c8:	fff34793          	not	a5,t1
     4cc:	8efd                	and	a3,a3,a5
				uint8_t input_pixel = input_byte & (1 << pixel);
     4ce:	4785                	li	a5,1
     4d0:	00e797b3          	sll	a5,a5,a4
						ssd1306_buffer[buffer_addr] = (ssd1306_buffer[buffer_addr] & ~v_mask) | (input_pixel ? v_mask : 0);
     4d4:	00f3f7b3          	and	a5,t2,a5
     4d8:	00f037b3          	snez	a5,a5
     4dc:	40f007b3          	neg	a5,a5
     4e0:	00f37333          	and	t1,t1,a5
     4e4:	0066e6b3          	or	a3,a3,t1
     4e8:	00d58023          	sb	a3,0(a1)
			for (pixel = 0; pixel < 8; pixel++) {
     4ec:	0705                	addi	a4,a4,1
     4ee:	fa571be3          	bne	a4,t0,4a4 <ssd1306_drawImage.constprop.0+0x7a>
     4f2:	1661                	addi	a2,a2,-8
     4f4:	0505                	addi	a0,a0,1
     4f6:	b745                	j	496 <ssd1306_drawImage.constprop.0+0x6c>

000004f8 <internal_handle_input.constprop.0>:
     4f8:	e00007b7          	lui	a5,0xe0000
     4fc:	0f47a783          	lw	a5,244(a5) # e00000f4 <__global_pointer$+0xbffff8f4>
     500:	8082                	ret

00000502 <_write.constprop.0>:
     502:	1121                	addi	sp,sp,-24
     504:	c822                	sw	s0,16(sp)
     506:	ca06                	sw	ra,20(sp)
     508:	c626                	sw	s1,12(sp)
     50a:	c402                	sw	zero,8(sp)
     50c:	842e                	mv	s0,a1
     50e:	eddd                	bnez	a1,5cc <_write.constprop.0+0xca>
     510:	e00007b7          	lui	a5,0xe0000
     514:	0f47a783          	lw	a5,244(a5) # e00000f4 <__global_pointer$+0xbffff8f4>
     518:	c789                	beqz	a5,522 <_write.constprop.0+0x20>
     51a:	0807f793          	andi	a5,a5,128
     51e:	e391                	bnez	a5,522 <_write.constprop.0+0x20>
     520:	3fe1                	jal	4f8 <internal_handle_input.constprop.0>
     522:	40d2                	lw	ra,20(sp)
     524:	8522                	mv	a0,s0
     526:	4442                	lw	s0,16(sp)
     528:	44b2                	lw	s1,12(sp)
     52a:	0161                	addi	sp,sp,24
     52c:	8082                	ret
     52e:	409407b3          	sub	a5,s0,s1
     532:	471d                	li	a4,7
     534:	00f75363          	bge	a4,a5,53a <_write.constprop.0+0x38>
     538:	87ba                	mv	a5,a4
     53a:	00027737          	lui	a4,0x27
     53e:	e00006b7          	lui	a3,0xe0000
     542:	10170713          	addi	a4,a4,257 # 27101 <main.c.5e928d26+0x24859>
     546:	0f468693          	addi	a3,a3,244 # e00000f4 <__global_pointer$+0xbffff8f4>
     54a:	4290                	lw	a2,0(a3)
     54c:	08067593          	andi	a1,a2,128
     550:	e1a5                	bnez	a1,5b0 <_write.constprop.0+0xae>
     552:	c611                	beqz	a2,55e <_write.constprop.0+0x5c>
     554:	c22a                	sw	a0,4(sp)
     556:	c03e                	sw	a5,0(sp)
     558:	3745                	jal	4f8 <internal_handle_input.constprop.0>
     55a:	4512                	lw	a0,4(sp)
     55c:	4782                	lw	a5,0(sp)
     55e:	0034                	addi	a3,sp,8
     560:	470d                	li	a4,3
     562:	85b6                	mv	a1,a3
     564:	04f74a63          	blt	a4,a5,5b8 <_write.constprop.0+0xb6>
     568:	46a2                	lw	a3,8(sp)
     56a:	e0000737          	lui	a4,0xe0000
     56e:	460d                	li	a2,3
     570:	0ed72c23          	sw	a3,248(a4) # e00000f8 <__global_pointer$+0xbffff8f8>
     574:	009506b3          	add	a3,a0,s1
     578:	4701                	li	a4,0
     57a:	0006c283          	lbu	t0,0(a3)
     57e:	0705                	addi	a4,a4,1
     580:	00e58333          	add	t1,a1,a4
     584:	00530023          	sb	t0,0(t1)
     588:	00e78563          	beq	a5,a4,592 <_write.constprop.0+0x90>
     58c:	0685                	addi	a3,a3,1
     58e:	fec716e3          	bne	a4,a2,57a <_write.constprop.0+0x78>
     592:	00478713          	addi	a4,a5,4
     596:	f8076713          	ori	a4,a4,-128
     59a:	00e10423          	sb	a4,8(sp)
     59e:	46a2                	lw	a3,8(sp)
     5a0:	e0000737          	lui	a4,0xe0000
     5a4:	94be                	add	s1,s1,a5
     5a6:	0ed72a23          	sw	a3,244(a4) # e00000f4 <__global_pointer$+0xbffff8f4>
     5aa:	f884c2e3          	blt	s1,s0,52e <_write.constprop.0+0x2c>
     5ae:	bf95                	j	522 <_write.constprop.0+0x20>
     5b0:	177d                	addi	a4,a4,-1
     5b2:	ff41                	bnez	a4,54a <_write.constprop.0+0x48>
     5b4:	8426                	mv	s0,s1
     5b6:	b7b5                	j	522 <_write.constprop.0+0x20>
     5b8:	00e48633          	add	a2,s1,a4
     5bc:	962a                	add	a2,a2,a0
     5be:	00064603          	lbu	a2,0(a2)
     5c2:	0705                	addi	a4,a4,1
     5c4:	0685                	addi	a3,a3,1
     5c6:	fec68fa3          	sb	a2,-1(a3)
     5ca:	bf69                	j	564 <_write.constprop.0+0x62>
     5cc:	4481                	li	s1,0
     5ce:	bff1                	j	5aa <_write.constprop.0+0xa8>

000005d0 <__puts_uart>:
     5d0:	1161                	addi	sp,sp,-8
     5d2:	c022                	sw	s0,0(sp)
     5d4:	c206                	sw	ra,4(sp)
     5d6:	842e                	mv	s0,a1
     5d8:	372d                	jal	502 <_write.constprop.0>
     5da:	4092                	lw	ra,4(sp)
     5dc:	8522                	mv	a0,s0
     5de:	4402                	lw	s0,0(sp)
     5e0:	0121                	addi	sp,sp,8
     5e2:	8082                	ret

000005e4 <handle_reset>:
     5e4:	20000197          	auipc	gp,0x20000
     5e8:	21c18193          	addi	gp,gp,540 # 20000800 <__global_pointer$>
     5ec:	00018113          	mv	sp,gp
     5f0:	08000513          	li	a0,128
     5f4:	30051073          	csrw	mstatus,a0
     5f8:	468d                	li	a3,3
     5fa:	00000517          	auipc	a0,0x0
     5fe:	a0650513          	addi	a0,a0,-1530 # 0 <InterruptVector>
     602:	8d55                	or	a0,a0,a3
     604:	30551073          	csrw	mtvec,a0
     608:	82818513          	addi	a0,gp,-2008 # 20000028 <ssd1306_buffer>
     60c:	c2818593          	addi	a1,gp,-984 # 20000428 <_ebss>
     610:	4601                	li	a2,0
     612:	00b55663          	bge	a0,a1,61e <handle_reset+0x3a>
     616:	c110                	sw	a2,0(a0)
     618:	0511                	addi	a0,a0,4
     61a:	feb54ee3          	blt	a0,a1,616 <handle_reset+0x32>
     61e:	00001517          	auipc	a0,0x1
     622:	56250513          	addi	a0,a0,1378 # 1b80 <_data_lma>
     626:	20000597          	auipc	a1,0x20000
     62a:	9da58593          	addi	a1,a1,-1574 # 20000000 <lfsr>
     62e:	82818613          	addi	a2,gp,-2008 # 20000028 <ssd1306_buffer>
     632:	00c58863          	beq	a1,a2,642 <handle_reset+0x5e>
     636:	4114                	lw	a3,0(a0)
     638:	c194                	sw	a3,0(a1)
     63a:	0511                	addi	a0,a0,4
     63c:	0591                	addi	a1,a1,4
     63e:	fec59ae3          	bne	a1,a2,632 <handle_reset+0x4e>
     642:	e000f7b7          	lui	a5,0xe000f
     646:	4705                	li	a4,1
     648:	c398                	sw	a4,0(a5)
     64a:	6785                	lui	a5,0x1
     64c:	d9478793          	addi	a5,a5,-620 # d94 <main>
     650:	34179073          	csrw	mepc,a5
     654:	30200073          	mret

00000658 <ADC1_IRQHandler>:
     658:	a001                	j	658 <ADC1_IRQHandler>

0000065a <NMI_Handler>:
     65a:	40021737          	lui	a4,0x40021
     65e:	471c                	lw	a5,8(a4)
     660:	008006b7          	lui	a3,0x800
     664:	8fd5                	or	a5,a5,a3
     666:	c71c                	sw	a5,8(a4)

00000668 <strlen>:
     668:	87aa                	mv	a5,a0
     66a:	0007c703          	lbu	a4,0(a5)
     66e:	e701                	bnez	a4,676 <strlen+0xe>
     670:	40a78533          	sub	a0,a5,a0
     674:	8082                	ret
     676:	0785                	addi	a5,a5,1
     678:	bfcd                	j	66a <strlen+0x2>

0000067a <mini_vpprintf>:
     67a:	fa410113          	addi	sp,sp,-92
     67e:	caa2                	sw	s0,84(sp)
     680:	c8a6                	sw	s1,80(sp)
     682:	cc86                	sw	ra,88(sp)
     684:	c02a                	sw	a0,0(sp)
     686:	c22e                	sw	a1,4(sp)
     688:	8432                	mv	s0,a2
     68a:	84b6                	mv	s1,a3
     68c:	e509                	bnez	a0,696 <mini_vpprintf+0x1c>
     68e:	13600793          	li	a5,310
     692:	c202                	sw	zero,4(sp)
     694:	c03e                	sw	a5,0(sp)
     696:	ca02                	sw	zero,20(sp)
     698:	00044783          	lbu	a5,0(s0)
     69c:	00140713          	addi	a4,s0,1
     6a0:	00f10fa3          	sb	a5,31(sp)
     6a4:	eb81                	bnez	a5,6b4 <mini_vpprintf+0x3a>
     6a6:	40e6                	lw	ra,88(sp)
     6a8:	4456                	lw	s0,84(sp)
     6aa:	4552                	lw	a0,20(sp)
     6ac:	44c6                	lw	s1,80(sp)
     6ae:	05c10113          	addi	sp,sp,92
     6b2:	8082                	ret
     6b4:	c63a                	sw	a4,12(sp)
     6b6:	02500693          	li	a3,37
     6ba:	02d78063          	beq	a5,a3,6da <mini_vpprintf+0x60>
     6be:	4612                	lw	a2,4(sp)
     6c0:	4782                	lw	a5,0(sp)
     6c2:	4585                	li	a1,1
     6c4:	01f10513          	addi	a0,sp,31
     6c8:	9782                	jalr	a5
     6ca:	4732                	lw	a4,12(sp)
     6cc:	c426                	sw	s1,8(sp)
     6ce:	843a                	mv	s0,a4
     6d0:	47d2                	lw	a5,20(sp)
     6d2:	44a2                	lw	s1,8(sp)
     6d4:	97aa                	add	a5,a5,a0
     6d6:	ca3e                	sw	a5,20(sp)
     6d8:	b7c1                	j	698 <mini_vpprintf+0x1e>
     6da:	00144783          	lbu	a5,1(s0)
     6de:	03000693          	li	a3,48
     6e2:	00240713          	addi	a4,s0,2
     6e6:	00f10fa3          	sb	a5,31(sp)
     6ea:	c63e                	sw	a5,12(sp)
     6ec:	08d79363          	bne	a5,a3,772 <mini_vpprintf+0xf8>
     6f0:	843a                	mv	s0,a4
     6f2:	4681                	li	a3,0
     6f4:	4701                	li	a4,0
     6f6:	45a5                	li	a1,9
     6f8:	a819                	j	70e <mini_vpprintf+0x94>
     6fa:	00271793          	slli	a5,a4,0x2
     6fe:	97ba                	add	a5,a5,a4
     700:	0786                	slli	a5,a5,0x1
     702:	0405                	addi	s0,s0,1
     704:	00f60733          	add	a4,a2,a5
     708:	fff44783          	lbu	a5,-1(s0)
     70c:	4685                	li	a3,1
     70e:	fd078613          	addi	a2,a5,-48
     712:	0ff67513          	zext.b	a0,a2
     716:	fea5f2e3          	bgeu	a1,a0,6fa <mini_vpprintf+0x80>
     71a:	c299                	beqz	a3,720 <mini_vpprintf+0xa6>
     71c:	00f10fa3          	sb	a5,31(sp)
     720:	c83a                	sw	a4,16(sp)
     722:	46e1                	li	a3,24
     724:	00e6d363          	bge	a3,a4,72a <mini_vpprintf+0xb0>
     728:	c836                	sw	a3,16(sp)
     72a:	06c00613          	li	a2,108
     72e:	4681                	li	a3,0
     730:	00c79863          	bne	a5,a2,740 <mini_vpprintf+0xc6>
     734:	00044783          	lbu	a5,0(s0)
     738:	4685                	li	a3,1
     73a:	0405                	addi	s0,s0,1
     73c:	00f10fa3          	sb	a5,31(sp)
     740:	01f14603          	lbu	a2,31(sp)
     744:	06400793          	li	a5,100
     748:	06f60563          	beq	a2,a5,7b2 <mini_vpprintf+0x138>
     74c:	02c7e763          	bltu	a5,a2,77a <mini_vpprintf+0x100>
     750:	05800793          	li	a5,88
     754:	0af60063          	beq	a2,a5,7f4 <mini_vpprintf+0x17a>
     758:	06300793          	li	a5,99
     75c:	0af60d63          	beq	a2,a5,816 <mini_vpprintf+0x19c>
     760:	d239                	beqz	a2,6a6 <mini_vpprintf+0x2c>
     762:	4612                	lw	a2,4(sp)
     764:	4782                	lw	a5,0(sp)
     766:	4585                	li	a1,1
     768:	01f10513          	addi	a0,sp,31
     76c:	9782                	jalr	a5
     76e:	c426                	sw	s1,8(sp)
     770:	b785                	j	6d0 <mini_vpprintf+0x56>
     772:	02000693          	li	a3,32
     776:	c636                	sw	a3,12(sp)
     778:	bfa5                	j	6f0 <mini_vpprintf+0x76>
     77a:	07500793          	li	a5,117
     77e:	02f60a63          	beq	a2,a5,7b2 <mini_vpprintf+0x138>
     782:	07800793          	li	a5,120
     786:	06f60763          	beq	a2,a5,7f4 <mini_vpprintf+0x17a>
     78a:	07300793          	li	a5,115
     78e:	fcf61ae3          	bne	a2,a5,762 <mini_vpprintf+0xe8>
     792:	00448793          	addi	a5,s1,4
     796:	4084                	lw	s1,0(s1)
     798:	cc3a                	sw	a4,24(sp)
     79a:	c43e                	sw	a5,8(sp)
     79c:	8526                	mv	a0,s1
     79e:	35e9                	jal	668 <strlen>
     7a0:	4762                	lw	a4,24(sp)
     7a2:	85aa                	mv	a1,a0
     7a4:	08e05663          	blez	a4,830 <mini_vpprintf+0x1b6>
     7a8:	46c2                	lw	a3,16(sp)
     7aa:	4632                	lw	a2,12(sp)
     7ac:	1838                	addi	a4,sp,56
     7ae:	8526                	mv	a0,s1
     7b0:	a01d                	j	7d6 <mini_vpprintf+0x15c>
     7b2:	00448793          	addi	a5,s1,4
     7b6:	c43e                	sw	a5,8(sp)
     7b8:	c695                	beqz	a3,7e4 <mini_vpprintf+0x16a>
     7ba:	f8b60613          	addi	a2,a2,-117
     7be:	1018                	addi	a4,sp,32
     7c0:	00163693          	seqz	a3,a2
     7c4:	4088                	lw	a0,0(s1)
     7c6:	4601                	li	a2,0
     7c8:	45a9                	li	a1,10
     7ca:	34a1                	jal	212 <mini_itoa.part.0>
     7cc:	46c2                	lw	a3,16(sp)
     7ce:	4632                	lw	a2,12(sp)
     7d0:	1838                	addi	a4,sp,56
     7d2:	85aa                	mv	a1,a0
     7d4:	1008                	addi	a0,sp,32
     7d6:	3245                	jal	176 <mini_pad>
     7d8:	4612                	lw	a2,4(sp)
     7da:	85aa                	mv	a1,a0
     7dc:	1828                	addi	a0,sp,56
     7de:	4782                	lw	a5,0(sp)
     7e0:	9782                	jalr	a5
     7e2:	b5fd                	j	6d0 <mini_vpprintf+0x56>
     7e4:	07500793          	li	a5,117
     7e8:	1018                	addi	a4,sp,32
     7ea:	4685                	li	a3,1
     7ec:	fcf60ce3          	beq	a2,a5,7c4 <mini_vpprintf+0x14a>
     7f0:	4681                	li	a3,0
     7f2:	bfc9                	j	7c4 <mini_vpprintf+0x14a>
     7f4:	4088                	lw	a0,0(s1)
     7f6:	fa860613          	addi	a2,a2,-88
     7fa:	00448793          	addi	a5,s1,4
     7fe:	1018                	addi	a4,sp,32
     800:	4685                	li	a3,1
     802:	00163613          	seqz	a2,a2
     806:	45c1                	li	a1,16
     808:	c43e                	sw	a5,8(sp)
     80a:	3421                	jal	212 <mini_itoa.part.0>
     80c:	46c2                	lw	a3,16(sp)
     80e:	4632                	lw	a2,12(sp)
     810:	85aa                	mv	a1,a0
     812:	1838                	addi	a4,sp,56
     814:	b7c1                	j	7d4 <mini_vpprintf+0x15a>
     816:	00448793          	addi	a5,s1,4
     81a:	c43e                	sw	a5,8(sp)
     81c:	409c                	lw	a5,0(s1)
     81e:	46c2                	lw	a3,16(sp)
     820:	4632                	lw	a2,12(sp)
     822:	00f10fa3          	sb	a5,31(sp)
     826:	1838                	addi	a4,sp,56
     828:	4585                	li	a1,1
     82a:	01f10513          	addi	a0,sp,31
     82e:	b765                	j	7d6 <mini_vpprintf+0x15c>
     830:	4612                	lw	a2,4(sp)
     832:	8526                	mv	a0,s1
     834:	b76d                	j	7de <mini_vpprintf+0x164>

00000836 <printf>:
     836:	1111                	addi	sp,sp,-28
     838:	c632                	sw	a2,12(sp)
     83a:	862a                	mv	a2,a0
     83c:	c42e                	sw	a1,8(sp)
     83e:	c836                	sw	a3,16(sp)
     840:	4581                	li	a1,0
     842:	0034                	addi	a3,sp,8
     844:	5d000513          	li	a0,1488
     848:	c206                	sw	ra,4(sp)
     84a:	ca3a                	sw	a4,20(sp)
     84c:	cc3e                	sw	a5,24(sp)
     84e:	c036                	sw	a3,0(sp)
     850:	352d                	jal	67a <mini_vpprintf>
     852:	4092                	lw	ra,4(sp)
     854:	0171                	addi	sp,sp,28
     856:	8082                	ret

00000858 <ssd1306_i2c_error.isra.0>:
 * error handler
 */
uint8_t ssd1306_i2c_error(uint8_t err)
{
	// report error
	printf("ssd1306_i2c_error - timeout waiting for %s\n\r", errstr[err]);
     858:	6785                	lui	a5,0x1
     85a:	050a                	slli	a0,a0,0x2
     85c:	2b078793          	addi	a5,a5,688 # 12b0 <errstr>
     860:	97aa                	add	a5,a5,a0
     862:	438c                	lw	a1,0(a5)
     864:	6505                	lui	a0,0x1
uint8_t ssd1306_i2c_error(uint8_t err)
     866:	1171                	addi	sp,sp,-4
	printf("ssd1306_i2c_error - timeout waiting for %s\n\r", errstr[err]);
     868:	21c50513          	addi	a0,a0,540 # 121c <main+0x488>
uint8_t ssd1306_i2c_error(uint8_t err)
     86c:	c006                	sw	ra,0(sp)
	printf("ssd1306_i2c_error - timeout waiting for %s\n\r", errstr[err]);
     86e:	37e1                	jal	836 <printf>
	
	// reset & initialize I2C
	ssd1306_i2c_setup();

	return 1;
}
     870:	4082                	lw	ra,0(sp)
     872:	0111                	addi	sp,sp,4
	ssd1306_i2c_setup();
     874:	bcb9                	j	2d2 <ssd1306_i2c_setup>

00000876 <ssd1306_i2c_send.constprop.0.isra.0>:
uint8_t ssd1306_i2c_send(uint8_t addr, uint8_t *data, uint8_t sz)
{
	int32_t timeout;
	
	// wait for not busy
	timeout = TIMEOUT_MAX;
     876:	6761                	lui	a4,0x18
	while((I2C1->STAR2 & I2C_STAR2_BUSY) && (timeout--));
     878:	400057b7          	lui	a5,0x40005
	timeout = TIMEOUT_MAX;
     87c:	6a070713          	addi	a4,a4,1696 # 186a0 <main.c.5e928d26+0x15df8>
	while((I2C1->STAR2 & I2C_STAR2_BUSY) && (timeout--));
     880:	40078793          	addi	a5,a5,1024 # 40005400 <__global_pointer$+0x20004c00>
     884:	567d                	li	a2,-1
     886:	0187d683          	lhu	a3,24(a5)
     88a:	8a89                	andi	a3,a3,2
     88c:	cedd                	beqz	a3,94a <ssd1306_i2c_send.constprop.0.isra.0+0xd4>
     88e:	177d                	addi	a4,a4,-1
     890:	fec71be3          	bne	a4,a2,886 <ssd1306_i2c_send.constprop.0.isra.0+0x10>
	if(timeout==-1)
		return ssd1306_i2c_error(0);
     894:	4501                	li	a0,0
     896:	a821                	j	8ae <ssd1306_i2c_send.constprop.0.isra.0+0x38>
     898:	67e1                	lui	a5,0x18
     89a:	6a178793          	addi	a5,a5,1697 # 186a1 <main.c.5e928d26+0x15df9>
	// send data one byte at a time
	while(sz--)
	{
		// wait for TX Empty
		timeout = TIMEOUT_MAX;
		while(!(I2C1->STAR1 & I2C_STAR1_TXE) && (timeout--));
     89e:	01475683          	lhu	a3,20(a4)
     8a2:	0806f693          	andi	a3,a3,128
     8a6:	e689                	bnez	a3,8b0 <ssd1306_i2c_send.constprop.0.isra.0+0x3a>
     8a8:	17fd                	addi	a5,a5,-1
     8aa:	fbf5                	bnez	a5,89e <ssd1306_i2c_send.constprop.0.isra.0+0x28>
		if(timeout==-1)
			return ssd1306_i2c_error(3);
     8ac:	450d                	li	a0,3
		return ssd1306_i2c_error(0);
     8ae:	b76d                	j	858 <ssd1306_i2c_error.isra.0>
		
		// send command
		I2C1->DATAR = *data++;
     8b0:	00054783          	lbu	a5,0(a0)
     8b4:	0505                	addi	a0,a0,1
     8b6:	00f71823          	sh	a5,16(a4)
	while(sz--)
     8ba:	fcb51fe3          	bne	a0,a1,898 <ssd1306_i2c_send.constprop.0.isra.0+0x22>
	}

	// wait for tx complete
	timeout = TIMEOUT_MAX;
     8be:	66e1                	lui	a3,0x18
	uint32_t status = I2C1->STAR1 | (I2C1->STAR2<<16);
     8c0:	40005737          	lui	a4,0x40005
	while((!ssd1306_i2c_chk_evt(SSD1306_I2C_EVENT_MASTER_BYTE_TRANSMITTED)) && (timeout--));
     8c4:	00070637          	lui	a2,0x70
	timeout = TIMEOUT_MAX;
     8c8:	6a068693          	addi	a3,a3,1696 # 186a0 <main.c.5e928d26+0x15df8>
	uint32_t status = I2C1->STAR1 | (I2C1->STAR2<<16);
     8cc:	40070713          	addi	a4,a4,1024 # 40005400 <__global_pointer$+0x20004c00>
	while((!ssd1306_i2c_chk_evt(SSD1306_I2C_EVENT_MASTER_BYTE_TRANSMITTED)) && (timeout--));
     8d0:	08460613          	addi	a2,a2,132 # 70084 <main.c.5e928d26+0x6d7dc>
     8d4:	55fd                	li	a1,-1
	uint32_t status = I2C1->STAR1 | (I2C1->STAR2<<16);
     8d6:	01475503          	lhu	a0,20(a4)
     8da:	01875783          	lhu	a5,24(a4)
     8de:	07c2                	slli	a5,a5,0x10
     8e0:	8fc9                	or	a5,a5,a0
	while((!ssd1306_i2c_chk_evt(SSD1306_I2C_EVENT_MASTER_BYTE_TRANSMITTED)) && (timeout--));
     8e2:	8ff1                	and	a5,a5,a2
     8e4:	00c78763          	beq	a5,a2,8f2 <ssd1306_i2c_send.constprop.0.isra.0+0x7c>
     8e8:	16fd                	addi	a3,a3,-1
     8ea:	feb696e3          	bne	a3,a1,8d6 <ssd1306_i2c_send.constprop.0.isra.0+0x60>
	if(timeout==-1)
		return ssd1306_i2c_error(4);
     8ee:	4511                	li	a0,4
     8f0:	bf7d                	j	8ae <ssd1306_i2c_send.constprop.0.isra.0+0x38>

	// set STOP condition
	I2C1->CTLR1 |= I2C_CTLR1_STOP;
     8f2:	00075783          	lhu	a5,0(a4)
     8f6:	2007e793          	ori	a5,a5,512
     8fa:	00f71023          	sh	a5,0(a4)
	
	// we're happy
	return 0;
}
     8fe:	8082                	ret
		while(!(I2C1->STAR1 & I2C_STAR1_TXE) && (timeout--));
     900:	40005737          	lui	a4,0x40005
     904:	95aa                	add	a1,a1,a0
     906:	40070713          	addi	a4,a4,1024 # 40005400 <__global_pointer$+0x20004c00>
     90a:	bf45                	j	8ba <ssd1306_i2c_send.constprop.0.isra.0+0x44>
	I2C1->DATAR = addr<<1;
     90c:	07800793          	li	a5,120
     910:	00f71823          	sh	a5,16(a4)
	timeout = TIMEOUT_MAX;
     914:	6661                	lui	a2,0x18
	uint32_t status = I2C1->STAR1 | (I2C1->STAR2<<16);
     916:	400056b7          	lui	a3,0x40005
	while((!ssd1306_i2c_chk_evt(SSD1306_I2C_EVENT_MASTER_TRANSMITTER_MODE_SELECTED)) && (timeout--));
     91a:	00070737          	lui	a4,0x70
	timeout = TIMEOUT_MAX;
     91e:	6a060613          	addi	a2,a2,1696 # 186a0 <main.c.5e928d26+0x15df8>
	uint32_t status = I2C1->STAR1 | (I2C1->STAR2<<16);
     922:	40068693          	addi	a3,a3,1024 # 40005400 <__global_pointer$+0x20004c00>
	while((!ssd1306_i2c_chk_evt(SSD1306_I2C_EVENT_MASTER_TRANSMITTER_MODE_SELECTED)) && (timeout--));
     926:	08270713          	addi	a4,a4,130 # 70082 <main.c.5e928d26+0x6d7da>
     92a:	537d                	li	t1,-1
	uint32_t status = I2C1->STAR1 | (I2C1->STAR2<<16);
     92c:	0146d283          	lhu	t0,20(a3)
     930:	0186d783          	lhu	a5,24(a3)
     934:	07c2                	slli	a5,a5,0x10
     936:	0057e7b3          	or	a5,a5,t0
	while((!ssd1306_i2c_chk_evt(SSD1306_I2C_EVENT_MASTER_TRANSMITTER_MODE_SELECTED)) && (timeout--));
     93a:	8ff9                	and	a5,a5,a4
     93c:	fce782e3          	beq	a5,a4,900 <ssd1306_i2c_send.constprop.0.isra.0+0x8a>
     940:	167d                	addi	a2,a2,-1
     942:	fe6615e3          	bne	a2,t1,92c <ssd1306_i2c_send.constprop.0.isra.0+0xb6>
		return ssd1306_i2c_error(2);
     946:	4509                	li	a0,2
     948:	b79d                	j	8ae <ssd1306_i2c_send.constprop.0.isra.0+0x38>
	I2C1->CTLR1 |= I2C_CTLR1_START;
     94a:	0007d703          	lhu	a4,0(a5)
	timeout = TIMEOUT_MAX;
     94e:	66e1                	lui	a3,0x18
	while((!ssd1306_i2c_chk_evt(SSD1306_I2C_EVENT_MASTER_MODE_SELECT)) && (timeout--));
     950:	00030637          	lui	a2,0x30
	I2C1->CTLR1 |= I2C_CTLR1_START;
     954:	10076713          	ori	a4,a4,256
     958:	00e79023          	sh	a4,0(a5)
	uint32_t status = I2C1->STAR1 | (I2C1->STAR2<<16);
     95c:	40005737          	lui	a4,0x40005
	timeout = TIMEOUT_MAX;
     960:	6a068693          	addi	a3,a3,1696 # 186a0 <main.c.5e928d26+0x15df8>
	uint32_t status = I2C1->STAR1 | (I2C1->STAR2<<16);
     964:	40070713          	addi	a4,a4,1024 # 40005400 <__global_pointer$+0x20004c00>
	while((!ssd1306_i2c_chk_evt(SSD1306_I2C_EVENT_MASTER_MODE_SELECT)) && (timeout--));
     968:	0605                	addi	a2,a2,1 # 30001 <main.c.5e928d26+0x2d759>
     96a:	537d                	li	t1,-1
	uint32_t status = I2C1->STAR1 | (I2C1->STAR2<<16);
     96c:	01475283          	lhu	t0,20(a4)
     970:	01875783          	lhu	a5,24(a4)
     974:	07c2                	slli	a5,a5,0x10
     976:	0057e7b3          	or	a5,a5,t0
	while((!ssd1306_i2c_chk_evt(SSD1306_I2C_EVENT_MASTER_MODE_SELECT)) && (timeout--));
     97a:	8ff1                	and	a5,a5,a2
     97c:	f8c788e3          	beq	a5,a2,90c <ssd1306_i2c_send.constprop.0.isra.0+0x96>
     980:	16fd                	addi	a3,a3,-1
     982:	fe6695e3          	bne	a3,t1,96c <ssd1306_i2c_send.constprop.0.isra.0+0xf6>
		return ssd1306_i2c_error(1);
     986:	4505                	li	a0,1
     988:	b71d                	j	8ae <ssd1306_i2c_send.constprop.0.isra.0+0x38>

0000098a <ssd1306_cmd.isra.0>:
uint8_t ssd1306_cmd(uint8_t cmd)
     98a:	fd810113          	addi	sp,sp,-40
	
	/* build command or data packets */
	if(cmd)
	{
		pkt[0] = 0;
		pkt[1] = *data;
     98e:	00a100a3          	sb	a0,1(sp)
	else
	{
		pkt[0] = 0x40;
		memcpy(&pkt[1], data, sz);
	}
	return ssd1306_i2c_send(SSD1306_I2C_ADDR, pkt, sz+1);
     992:	4589                	li	a1,2
     994:	850a                	mv	a0,sp
     996:	d206                	sw	ra,36(sp)
		pkt[0] = 0;
     998:	00010023          	sb	zero,0(sp)
	return ssd1306_i2c_send(SSD1306_I2C_ADDR, pkt, sz+1);
     99c:	3de9                	jal	876 <ssd1306_i2c_send.constprop.0.isra.0>
}
     99e:	5092                	lw	ra,36(sp)
     9a0:	02810113          	addi	sp,sp,40
     9a4:	8082                	ret

000009a6 <memset>:
     9a6:	962a                	add	a2,a2,a0
     9a8:	87aa                	mv	a5,a0
     9aa:	00c79363          	bne	a5,a2,9b0 <memset+0xa>
     9ae:	8082                	ret
     9b0:	00b78023          	sb	a1,0(a5)
     9b4:	0785                	addi	a5,a5,1
     9b6:	bfd5                	j	9aa <memset+0x4>

000009b8 <ssd1306_setbuf.constprop.0>:
	memset(ssd1306_buffer, color ? 0xFF : 0x00, sizeof(ssd1306_buffer));
     9b8:	20000537          	lui	a0,0x20000
     9bc:	40000613          	li	a2,1024
     9c0:	4581                	li	a1,0
     9c2:	02850513          	addi	a0,a0,40 # 20000028 <ssd1306_buffer>
     9c6:	b7c5                	j	9a6 <memset>

000009c8 <memcpy>:
     9c8:	4781                	li	a5,0
     9ca:	00f61363          	bne	a2,a5,9d0 <memcpy+0x8>
     9ce:	8082                	ret
     9d0:	00f58733          	add	a4,a1,a5
     9d4:	00074683          	lbu	a3,0(a4)
     9d8:	00f50733          	add	a4,a0,a5
     9dc:	0785                	addi	a5,a5,1
     9de:	00d70023          	sb	a3,0(a4)
     9e2:	b7e5                	j	9ca <memcpy+0x2>

000009e4 <ssd1306_refresh>:
{
     9e4:	7179                	addi	sp,sp,-48
	ssd1306_cmd(SSD1306_COLUMNADDR);
     9e6:	02100513          	li	a0,33
{
     9ea:	d606                	sw	ra,44(sp)
     9ec:	d422                	sw	s0,40(sp)
     9ee:	d226                	sw	s1,36(sp)
	ssd1306_cmd(SSD1306_COLUMNADDR);
     9f0:	3f69                	jal	98a <ssd1306_cmd.isra.0>
	ssd1306_cmd(SSD1306_OFFSET);   // Column start address (0 = reset)
     9f2:	4501                	li	a0,0
     9f4:	3f59                	jal	98a <ssd1306_cmd.isra.0>
	ssd1306_cmd(SSD1306_OFFSET+SSD1306_W-1); // Column end address (127 = reset)
     9f6:	07f00513          	li	a0,127
     9fa:	3f41                	jal	98a <ssd1306_cmd.isra.0>
	ssd1306_cmd(SSD1306_PAGEADDR);
     9fc:	02200513          	li	a0,34
     a00:	3769                	jal	98a <ssd1306_cmd.isra.0>
	ssd1306_cmd(0); // Page start address (0 = reset)
     a02:	4501                	li	a0,0
     a04:	3759                	jal	98a <ssd1306_cmd.isra.0>
	ssd1306_cmd(7); // Page end address
     a06:	20000437          	lui	s0,0x20000
     a0a:	451d                	li	a0,7
     a0c:	02840413          	addi	s0,s0,40 # 20000028 <ssd1306_buffer>
     a10:	3fad                	jal	98a <ssd1306_cmd.isra.0>
    for(i=0;i<sizeof(ssd1306_buffer);i+=SSD1306_PSZ)
     a12:	40040493          	addi	s1,s0,1024
		pkt[0] = 0x40;
     a16:	04000793          	li	a5,64
		memcpy(&pkt[1], data, sz);
     a1a:	85a2                	mv	a1,s0
     a1c:	02000613          	li	a2,32
     a20:	00110513          	addi	a0,sp,1
		pkt[0] = 0x40;
     a24:	00f10023          	sb	a5,0(sp)
		memcpy(&pkt[1], data, sz);
     a28:	3745                	jal	9c8 <memcpy>
	return ssd1306_i2c_send(SSD1306_I2C_ADDR, pkt, sz+1);
     a2a:	02100593          	li	a1,33
     a2e:	850a                	mv	a0,sp
     a30:	02040413          	addi	s0,s0,32
     a34:	3589                	jal	876 <ssd1306_i2c_send.constprop.0.isra.0>
     a36:	fe9410e3          	bne	s0,s1,a16 <ssd1306_refresh+0x32>
}
     a3a:	50b2                	lw	ra,44(sp)
     a3c:	5422                	lw	s0,40(sp)
     a3e:	5492                	lw	s1,36(sp)
     a40:	6145                	addi	sp,sp,48
     a42:	8082                	ret

00000a44 <opening>:

    GPIO_pinMode(BTN_PIN, GPIO_pinMode_I_pullUp, GPIO_Speed_10MHz);
}

void opening()
{
     a44:	d8810113          	addi	sp,sp,-632
     a48:	26812823          	sw	s0,624(sp)
     a4c:	26112a23          	sw	ra,628(sp)
     a50:	26912623          	sw	s1,620(sp)
    bool button_state = false;
    int c = 0;

    for (int i = 0; i < 20; i+=1) {
     a54:	4401                	li	s0,0
      ssd1306_setbuf(0);
     a56:	378d                	jal	9b8 <ssd1306_setbuf.constprop.0>
			ssd1306_drawstr_sz(38,i, "MOPPING", 1, fontsize_8x8);
     a58:	6785                	lui	a5,0x1
     a5a:	24c78613          	addi	a2,a5,588 # 124c <main+0x4b8>
     a5e:	0ff47593          	zext.b	a1,s0
     a62:	4685                	li	a3,1
     a64:	02600513          	li	a0,38
     a68:	3201                	jal	368 <ssd1306_drawstr_sz.constprop.0>
      ssd1306_refresh();
     a6a:	3fad                	jal	9e4 <ssd1306_refresh>
      Delay_Ms(10);
     a6c:	653d                	lui	a0,0xf
     a6e:	a6050513          	addi	a0,a0,-1440 # ea60 <main.c.5e928d26+0xc1b8>
     a72:	f8eff0ef          	jal	200 <DelaySysTick>
    for (int i = 0; i < 20; i+=1) {
     a76:	0405                	addi	s0,s0,1
     a78:	47d1                	li	a5,20
     a7a:	fcf41ee3          	bne	s0,a5,a56 <opening+0x12>
    int c = 0;
     a7e:	4401                	li	s0,0
    bool button_state = false;
     a80:	c002                	sw	zero,0(sp)
    }
    
    while (1) {
      ssd1306_setbuf(0);
     a82:	3f1d                	jal	9b8 <ssd1306_setbuf.constprop.0>

			ssd1306_drawstr_sz(38,20, "MOPPING", 1, fontsize_8x8);
     a84:	6785                	lui	a5,0x1
     a86:	4685                	li	a3,1
     a88:	24c78613          	addi	a2,a5,588 # 124c <main+0x4b8>
     a8c:	45d1                	li	a1,20
     a8e:	02600513          	li	a0,38
     a92:	8d7ff0ef          	jal	368 <ssd1306_drawstr_sz.constprop.0>

      if (c > 50) {
     a96:	03200793          	li	a5,50
     a9a:	6485                	lui	s1,0x1
			  ssd1306_drawstr_sz(45,45, "start", 1, fontsize_8x8);
     a9c:	4685                	li	a3,1
      if (c > 50) {
     a9e:	0087c363          	blt	a5,s0,aa4 <opening+0x60>
        // ssd1306_drawRect(50, 50, 40, 10, 0);
      } else {
			  ssd1306_drawstr_sz(45,45, "start", 0, fontsize_8x8);
     aa2:	4681                	li	a3,0
     aa4:	02d00593          	li	a1,45
     aa8:	25448613          	addi	a2,s1,596 # 1254 <main+0x4c0>
     aac:	852e                	mv	a0,a1
     aae:	8bbff0ef          	jal	368 <ssd1306_drawstr_sz.constprop.0>
        // ssd1306_drawRect(50, 50, 40, 10, 1);
      }

      ssd1306_refresh();
     ab2:	3f0d                	jal	9e4 <ssd1306_refresh>

      uint8_t button_is_pressed = !GPIO_digitalRead(BTN_PIN);
     ab4:	400117b7          	lui	a5,0x40011
     ab8:	40078793          	addi	a5,a5,1024 # 40011400 <__global_pointer$+0x20010c00>
     abc:	479c                	lw	a5,8(a5)
      
      // 
      if (button_state && !button_is_pressed){
     abe:	4702                	lw	a4,0(sp)
     ac0:	8b89                	andi	a5,a5,2
     ac2:	c311                	beqz	a4,ac6 <opening+0x82>
     ac4:	eb99                	bnez	a5,ada <opening+0x96>
        break;
      }
      button_state = button_is_pressed;
     ac6:	0017b793          	seqz	a5,a5
     aca:	c03e                	sw	a5,0(sp)
      
      c ++;      
     acc:	0405                	addi	s0,s0,1
      if (c > 100) {
     ace:	06500793          	li	a5,101
     ad2:	faf418e3          	bne	s0,a5,a82 <opening+0x3e>
        c = 0;
     ad6:	4401                	li	s0,0
     ad8:	b76d                	j	a82 <opening+0x3e>
    }
   
    int kuina_x = -130;
    int kuina_y = 0;
    int kuina_num = 18;
    character kuinas[17] = {
     ada:	f7e00793          	li	a5,-130
     ade:	f8800613          	li	a2,-120
     ae2:	f9200593          	li	a1,-110
     ae6:	f9c00513          	li	a0,-100
     aea:	6689                	lui	a3,0x2
     aec:	6709                	lui	a4,0x2
     aee:	b6068693          	addi	a3,a3,-1184 # 1b60 <kuina_1>
     af2:	b4070713          	addi	a4,a4,-1216 # 1b40 <kuina_2>
     af6:	4379                	li	t1,30
     af8:	ce3e                	sw	a5,28(sp)
     afa:	c0b2                	sw	a2,64(sp)
     afc:	47c1                	li	a5,16
     afe:	03200613          	li	a2,50
     b02:	d2ae                	sw	a1,100(sp)
     b04:	c52a                	sw	a0,136(sp)
     b06:	45a9                	li	a1,10
     b08:	fa600513          	li	a0,-90
     b0c:	d72a                	sw	a0,172(sp)
     b0e:	fc400293          	li	t0,-60
     b12:	fb000513          	li	a0,-80
     b16:	c836                	sw	a3,16(sp)
     b18:	ca3a                	sw	a4,20(sp)
     b1a:	d002                	sw	zero,32(sp)
     b1c:	d23e                	sw	a5,36(sp)
     b1e:	d43e                	sw	a5,40(sp)
     b20:	da36                	sw	a3,52(sp)
     b22:	dc3a                	sw	a4,56(sp)
     b24:	c2b2                	sw	a2,68(sp)
     b26:	c4be                	sw	a5,72(sp)
     b28:	c6be                	sw	a5,76(sp)
     b2a:	ccb6                	sw	a3,88(sp)
     b2c:	ceba                	sw	a4,92(sp)
     b2e:	d4ae                	sw	a1,104(sp)
     b30:	d6be                	sw	a5,108(sp)
     b32:	d8be                	sw	a5,112(sp)
     b34:	deb6                	sw	a3,124(sp)
     b36:	c13a                	sw	a4,128(sp)
     b38:	c71a                	sw	t1,140(sp)
     b3a:	c93e                	sw	a5,144(sp)
     b3c:	cb3e                	sw	a5,148(sp)
     b3e:	d136                	sw	a3,160(sp)
     b40:	d33a                	sw	a4,164(sp)
     b42:	d902                	sw	zero,176(sp)
     b44:	db3e                	sw	a5,180(sp)
     b46:	dd3e                	sw	a5,184(sp)
     b48:	c3b6                	sw	a3,196(sp)
     b4a:	c5ba                	sw	a4,200(sp)
     b4c:	c9aa                	sw	a0,208(sp)
     b4e:	10512c23          	sw	t0,280(sp)
     b52:	02800293          	li	t0,40
     b56:	10512e23          	sw	t0,284(sp)
     b5a:	fce00293          	li	t0,-50
     b5e:	fba00513          	li	a0,-70
     b62:	12512e23          	sw	t0,316(sp)
     b66:	fd800293          	li	t0,-40
     b6a:	dbaa                	sw	a0,244(sp)
     b6c:	16512023          	sw	t0,352(sp)
     b70:	4551                	li	a0,20
     b72:	5289                	li	t0,-30
     b74:	18512223          	sw	t0,388(sp)
     b78:	cbb2                	sw	a2,212(sp)
     b7a:	52b1                	li	t0,-20
     b7c:	cdbe                	sw	a5,216(sp)
     b7e:	cfbe                	sw	a5,220(sp)
     b80:	d5b6                	sw	a3,232(sp)
     b82:	d7ba                	sw	a4,236(sp)
     b84:	ddaa                	sw	a0,248(sp)
     b86:	dfbe                	sw	a5,252(sp)
     b88:	10f12023          	sw	a5,256(sp)
     b8c:	10d12623          	sw	a3,268(sp)
     b90:	10e12823          	sw	a4,272(sp)
     b94:	12f12023          	sw	a5,288(sp)
     b98:	12f12223          	sw	a5,292(sp)
     b9c:	12d12823          	sw	a3,304(sp)
     ba0:	12e12a23          	sw	a4,308(sp)
     ba4:	14b12023          	sw	a1,320(sp)
     ba8:	14f12223          	sw	a5,324(sp)
     bac:	14f12423          	sw	a5,328(sp)
     bb0:	14d12a23          	sw	a3,340(sp)
     bb4:	14e12c23          	sw	a4,344(sp)
     bb8:	16c12223          	sw	a2,356(sp)
     bbc:	16f12423          	sw	a5,360(sp)
     bc0:	16f12623          	sw	a5,364(sp)
     bc4:	16d12c23          	sw	a3,376(sp)
     bc8:	16e12e23          	sw	a4,380(sp)
     bcc:	18012423          	sw	zero,392(sp)
     bd0:	18f12623          	sw	a5,396(sp)
     bd4:	18f12823          	sw	a5,400(sp)
     bd8:	1a512423          	sw	t0,424(sp)
     bdc:	52d9                	li	t0,-10
     bde:	18d12e23          	sw	a3,412(sp)
     be2:	1ae12023          	sw	a4,416(sp)
     be6:	1ac12623          	sw	a2,428(sp)
     bea:	1af12823          	sw	a5,432(sp)
     bee:	1af12a23          	sw	a5,436(sp)
     bf2:	1cd12023          	sw	a3,448(sp)
     bf6:	1ce12223          	sw	a4,452(sp)
     bfa:	1c512623          	sw	t0,460(sp)
     bfe:	1cb12823          	sw	a1,464(sp)
     c02:	1cf12a23          	sw	a5,468(sp)
     c06:	1cf12c23          	sw	a5,472(sp)
     c0a:	1ed12223          	sw	a3,484(sp)
     c0e:	1ee12423          	sw	a4,488(sp)
     c12:	1e012823          	sw	zero,496(sp)
     c16:	1e612a23          	sw	t1,500(sp)
     c1a:	1ef12c23          	sw	a5,504(sp)
     c1e:	1ef12e23          	sw	a5,508(sp)
     c22:	20d12423          	sw	a3,520(sp)
     c26:	20e12623          	sw	a4,524(sp)
     c2a:	20b12a23          	sw	a1,532(sp)
     c2e:	20012c23          	sw	zero,536(sp)
     c32:	20f12e23          	sw	a5,540(sp)
     c36:	22f12023          	sw	a5,544(sp)
     c3a:	22d12623          	sw	a3,556(sp)
     c3e:	22e12823          	sw	a4,560(sp)
     c42:	22a12c23          	sw	a0,568(sp)
     c46:	22c12e23          	sw	a2,572(sp)
     c4a:	24f12023          	sw	a5,576(sp)
     c4e:	24f12223          	sw	a5,580(sp)
     c52:	24d12823          	sw	a3,592(sp)
     c56:	24e12a23          	sw	a4,596(sp)
     c5a:	24612e23          	sw	t1,604(sp)
     c5e:	26a12023          	sw	a0,608(sp)
     c62:	26f12223          	sw	a5,612(sp)
     c66:	26f12423          	sw	a5,616(sp)
      {100,kuina_1,kuina_1,kuina_2,1,kuina_x+170,kuina_y+40,16,16},
      {100,kuina_1,kuina_1,kuina_2,1,kuina_x+180,kuina_y+10,16,16},
    };

    while (1) {
      ssd1306_setbuf(0);
     c6a:	33b9                	jal	9b8 <ssd1306_setbuf.constprop.0>
      
      if (kuinas[16].x < 64){
     c6c:	25c12703          	lw	a4,604(sp)
     c70:	03f00793          	li	a5,63
     c74:	02e7c363          	blt	a5,a4,c9a <opening+0x256>
        ssd1306_drawstr_sz(38,20, "MOPPING", 1, fontsize_8x8);
     c78:	6785                	lui	a5,0x1
     c7a:	4685                	li	a3,1
     c7c:	24c78613          	addi	a2,a5,588 # 124c <main+0x4b8>
     c80:	45d1                	li	a1,20
     c82:	02600513          	li	a0,38
     c86:	ee2ff0ef          	jal	368 <ssd1306_drawstr_sz.constprop.0>
        ssd1306_drawstr_sz(45,45, "start", 1, fontsize_8x8); 
     c8a:	02d00593          	li	a1,45
     c8e:	4685                	li	a3,1
     c90:	25448613          	addi	a2,s1,596
     c94:	852e                	mv	a0,a1
     c96:	ed2ff0ef          	jal	368 <ssd1306_drawstr_sz.constprop.0>
      }

      for (int i = 0; i < kuina_num; i++) {
     c9a:	003c                	addi	a5,sp,8
     c9c:	29010313          	addi	t1,sp,656
        if (kuinas[i].x > 0){
     ca0:	4bc8                	lw	a0,20(a5)
     ca2:	02a05363          	blez	a0,cc8 <opening+0x284>
          if (c < 10){
     ca6:	4725                	li	a4,9
     ca8:	04874263          	blt	a4,s0,cec <opening+0x2a8>
            kuinas[i].img = kuinas[i].img_1;
     cac:	4790                	lw	a2,8(a5)
          }
          else {
            kuinas[i].img = kuinas[i].img_2; 
          }
          ssd1306_drawImage(kuinas[i].x, kuinas[i].y, kuinas[i].img, kuinas[i].w, kuinas[i].h, 0);
     cae:	0207c703          	lbu	a4,32(a5)
     cb2:	01c7c683          	lbu	a3,28(a5)
     cb6:	4f8c                	lw	a1,24(a5)
     cb8:	c23e                	sw	a5,4(sp)
     cba:	c02a                	sw	a0,0(sp)
     cbc:	f6eff0ef          	jal	42a <ssd1306_drawImage.constprop.0>
     cc0:	4792                	lw	a5,4(sp)
     cc2:	4502                	lw	a0,0(sp)
     cc4:	29010313          	addi	t1,sp,656
        }
        kuinas[i].x += 1;
     cc8:	0505                	addi	a0,a0,1
     cca:	cbc8                	sw	a0,20(a5)
      for (int i = 0; i < kuina_num; i++) {
     ccc:	02478793          	addi	a5,a5,36
     cd0:	fcf318e3          	bne	t1,a5,ca0 <opening+0x25c>
      }

      ssd1306_refresh();
     cd4:	3b01                	jal	9e4 <ssd1306_refresh>

     
      if (kuinas[0].x > 128) {
     cd6:	4772                	lw	a4,28(sp)
     cd8:	08000793          	li	a5,128
     cdc:	04e7c363          	blt	a5,a4,d22 <opening+0x2de>
        break;
      }
      
      c ++;      
     ce0:	0405                	addi	s0,s0,1
      if (c > 20) {
     ce2:	47d1                	li	a5,20
     ce4:	f887d3e3          	bge	a5,s0,c6a <opening+0x226>
        c = 0;
     ce8:	4401                	li	s0,0
     cea:	b741                	j	c6a <opening+0x226>
            kuinas[i].img = kuinas[i].img_2; 
     cec:	47d0                	lw	a2,12(a5)
     cee:	b7c1                	j	cae <opening+0x26a>
        break;
      }

      c ++;      
      if (c > 20) {
        c = 0;
     cf0:	4401                	li	s0,0
     cf2:	0485                	addi	s1,s1,1
      ssd1306_setbuf(0);
     cf4:	31d1                	jal	9b8 <ssd1306_setbuf.constprop.0>
      if (c < 10){
     cf6:	47a5                	li	a5,9
     cf8:	0287c763          	blt	a5,s0,d26 <opening+0x2e2>
        mongoose.img = mongoose.img_1;
     cfc:	6609                	lui	a2,0x2
     cfe:	b3060613          	addi	a2,a2,-1232 # 1b30 <mongoose_left_1>
      ssd1306_drawImage(mongoose.x, mongoose.y, mongoose.img, mongoose.w, mongoose.h, 0);
     d02:	4721                	li	a4,8
     d04:	46c1                	li	a3,16
     d06:	45f9                	li	a1,30
     d08:	8526                	mv	a0,s1
     d0a:	f20ff0ef          	jal	42a <ssd1306_drawImage.constprop.0>
      ssd1306_refresh();
     d0e:	39d9                	jal	9e4 <ssd1306_refresh>
      if (mongoose.x > 128) {
     d10:	08000793          	li	a5,128
     d14:	00f48d63          	beq	s1,a5,d2e <opening+0x2ea>
      c ++;      
     d18:	0405                	addi	s0,s0,1
      if (c > 20) {
     d1a:	47d1                	li	a5,20
     d1c:	fc87cae3          	blt	a5,s0,cf0 <opening+0x2ac>
     d20:	bfc9                	j	cf2 <opening+0x2ae>
     d22:	4481                	li	s1,0
     d24:	bfc1                	j	cf4 <opening+0x2b0>
        mongoose.img = mongoose.img_2; 
     d26:	6609                	lui	a2,0x2
     d28:	b2060613          	addi	a2,a2,-1248 # 1b20 <mongoose_left_2>
     d2c:	bfd9                	j	d02 <opening+0x2be>
      } 
    }    
}
     d2e:	27412083          	lw	ra,628(sp)
     d32:	27012403          	lw	s0,624(sp)
     d36:	26c12483          	lw	s1,620(sp)
     d3a:	27810113          	addi	sp,sp,632
     d3e:	8082                	ret

00000d40 <SystemInit>:
     d40:	400227b7          	lui	a5,0x40022
     d44:	4705                	li	a4,1
     d46:	c398                	sw	a4,0(a5)
     d48:	400217b7          	lui	a5,0x40021
     d4c:	01080737          	lui	a4,0x1080
     d50:	0007a223          	sw	zero,4(a5) # 40021004 <__global_pointer$+0x20020804>
     d54:	08170713          	addi	a4,a4,129 # 1080081 <main.c.5e928d26+0x107d7d9>
     d58:	c398                	sw	a4,0(a5)
     d5a:	009f0737          	lui	a4,0x9f0
     d5e:	c798                	sw	a4,8(a5)
     d60:	4398                	lw	a4,0(a5)
     d62:	00671693          	slli	a3,a4,0x6
     d66:	fe06dde3          	bgez	a3,d60 <SystemInit+0x20>
     d6a:	43d8                	lw	a4,4(a5)
     d6c:	400216b7          	lui	a3,0x40021
     d70:	9b71                	andi	a4,a4,-4
     d72:	00276713          	ori	a4,a4,2
     d76:	c3d8                	sw	a4,4(a5)
     d78:	4721                	li	a4,8
     d7a:	42dc                	lw	a5,4(a3)
     d7c:	8bb1                	andi	a5,a5,12
     d7e:	fee79ee3          	bne	a5,a4,d7a <SystemInit+0x3a>
     d82:	e00007b7          	lui	a5,0xe0000
     d86:	0e07ac23          	sw	zero,248(a5) # e00000f8 <__global_pointer$+0xbffff8f8>
     d8a:	08000713          	li	a4,128
     d8e:	0ee7aa23          	sw	a4,244(a5)
     d92:	8082                	ret

00000d94 <main>:
  }
	Delay_Ms(2000);
}

int main()
{
     d94:	f0c10113          	addi	sp,sp,-244
     d98:	d986                	sw	ra,240(sp)
     d9a:	d7a2                	sw	s0,236(sp)
     d9c:	d5a6                	sw	s1,232(sp)
    GPIO_port_enable(GPIO_port_A);
     d9e:	40021437          	lui	s0,0x40021
	// 48MHz internal clock
	SystemInit();
     da2:	3f79                	jal	d40 <SystemInit>
    GPIO_port_enable(GPIO_port_A);
     da4:	4c1c                	lw	a5,24(s0)
    GPIO_pinMode(BTN_PIN, GPIO_pinMode_I_pullUp, GPIO_Speed_10MHz);
     da6:	400114b7          	lui	s1,0x40011

  init_gpio();

	Delay_Ms( 200 );
     daa:	00125537          	lui	a0,0x125
    GPIO_port_enable(GPIO_port_A);
     dae:	0047e793          	ori	a5,a5,4
     db2:	cc1c                	sw	a5,24(s0)
    GPIO_port_enable(GPIO_port_D);
     db4:	4c1c                	lw	a5,24(s0)
	Delay_Ms( 200 );
     db6:	f8050513          	addi	a0,a0,-128 # 124f80 <main.c.5e928d26+0x1226d8>
    GPIO_port_enable(GPIO_port_D);
     dba:	0207e793          	ori	a5,a5,32
     dbe:	cc1c                	sw	a5,24(s0)
    GPIO_port_enable(GPIO_port_C);
     dc0:	4c1c                	lw	a5,24(s0)
     dc2:	0107e793          	ori	a5,a5,16
     dc6:	cc1c                	sw	a5,24(s0)
    GPIO_pinMode(BTN_PIN, GPIO_pinMode_I_pullUp, GPIO_Speed_10MHz);
     dc8:	40048793          	addi	a5,s1,1024 # 40011400 <__global_pointer$+0x20010c00>
     dcc:	4398                	lw	a4,0(a5)
     dce:	f0f77713          	andi	a4,a4,-241
     dd2:	c398                	sw	a4,0(a5)
     dd4:	4398                	lw	a4,0(a5)
     dd6:	08076713          	ori	a4,a4,128
     dda:	c398                	sw	a4,0(a5)
     ddc:	4709                	li	a4,2
     dde:	cb98                	sw	a4,16(a5)
	Delay_Ms( 200 );
     de0:	c20ff0ef          	jal	200 <DelaySysTick>
 * init I2C and GPIO
 */
uint8_t ssd1306_i2c_init(void)
{
	// Enable GPIOC and I2C
	RCC->APB2PCENR |= RCC_APB2Periph_GPIOC;
     de4:	4c1c                	lw	a5,24(s0)
	RCC->APB1PCENR |= RCC_APB1Periph_I2C1;
     de6:	00200737          	lui	a4,0x200
	RCC->APB2PCENR |= RCC_APB2Periph_GPIOC;
     dea:	0107e793          	ori	a5,a5,16
     dee:	cc1c                	sw	a5,24(s0)
	RCC->APB1PCENR |= RCC_APB1Periph_I2C1;
     df0:	4c5c                	lw	a5,28(s0)
     df2:	8fd9                	or	a5,a5,a4
     df4:	cc5c                	sw	a5,28(s0)
	
	// PC1 is SDA, 10MHz Output, alt func, open-drain
	GPIOC->CFGLR &= ~(0xf<<(4*1));
     df6:	409c                	lw	a5,0(s1)
	GPIOC->CFGLR |= (GPIO_Speed_10MHz | GPIO_CNF_OUT_OD_AF)<<(4*1);
	
	// PC2 is SCL, 10MHz Output, alt func, open-drain
	GPIOC->CFGLR &= ~(0xf<<(4*2));
     df8:	777d                	lui	a4,0xfffff
     dfa:	0ff70713          	addi	a4,a4,255 # fffff0ff <__global_pointer$+0xdfffe8ff>
	GPIOC->CFGLR &= ~(0xf<<(4*1));
     dfe:	f0f7f793          	andi	a5,a5,-241
     e02:	c09c                	sw	a5,0(s1)
	GPIOC->CFGLR |= (GPIO_Speed_10MHz | GPIO_CNF_OUT_OD_AF)<<(4*1);
     e04:	409c                	lw	a5,0(s1)
{
	// pulse reset
	ssd1306_rst();
	
	// initialize OLED
	uint8_t *cmd_list = (uint8_t *)ssd1306_init_array;
     e06:	6409                	lui	s0,0x2
     e08:	ac440413          	addi	s0,s0,-1340 # 1ac4 <ssd1306_init_array>
     e0c:	0d07e793          	ori	a5,a5,208
     e10:	c09c                	sw	a5,0(s1)
	GPIOC->CFGLR &= ~(0xf<<(4*2));
     e12:	409c                	lw	a5,0(s1)
     e14:	8ff9                	and	a5,a5,a4
     e16:	c09c                	sw	a5,0(s1)
	GPIOC->CFGLR |= (GPIO_Speed_10MHz | GPIO_CNF_OUT_OD_AF)<<(4*2);
     e18:	409c                	lw	a5,0(s1)
     e1a:	6705                	lui	a4,0x1
     e1c:	d0070713          	addi	a4,a4,-768 # d00 <opening+0x2bc>
     e20:	8fd9                	or	a5,a5,a4
     e22:	c09c                	sw	a5,0(s1)
	GPIOC->CFGLR |= (GPIO_Speed_10MHz | GPIO_CNF_OUT_PP)<<(4*4);
	GPIOC->BSHR = (1<<(16+4));
#endif

	// load I2C regs
	ssd1306_i2c_setup();
     e24:	caeff0ef          	jal	2d2 <ssd1306_i2c_setup>
	while(*cmd_list != SSD1306_TERMINATE_CMDS)
     e28:	00044503          	lbu	a0,0(s0)
     e2c:	0ff00793          	li	a5,255
     e30:	0cf51a63          	bne	a0,a5,f04 <main+0x170>
		if(ssd1306_cmd(*cmd_list++))
			return 1;
	}
	
	// clear display
	ssd1306_setbuf(0);
     e34:	3651                	jal	9b8 <ssd1306_setbuf.constprop.0>
	ssd1306_refresh();
     e36:	367d                	jal	9e4 <ssd1306_refresh>

	if (!ssd1306_i2c_init()) {
		ssd1306_init();

    opening();
     e38:	3131                	jal	a44 <opening>
    
    // clear display
    ssd1306_setbuf(0);
     e3a:	3ebd                	jal	9b8 <ssd1306_setbuf.constprop.0>
    ssd1306_refresh();
     e3c:	3665                	jal	9e4 <ssd1306_refresh>
  character enemy[3] = {
     e3e:	6585                	lui	a1,0x1
     e40:	06c00613          	li	a2,108
     e44:	1b058593          	addi	a1,a1,432 # 11b0 <main+0x41c>
     e48:	18e8                	addi	a0,sp,124
     e4a:	3ebd                	jal	9c8 <memcpy>
  int random_n = get_random(10);
     e4c:	4529                	li	a0,10
     e4e:	cd8ff0ef          	jal	326 <get_random>
  character kuina = {100,kuina_1,kuina_1,kuina_2,0,init_kuina_x,init_kuina_y,16,16};
     e52:	02d00793          	li	a5,45
  bool hart_flag = false;
     e56:	d002                	sw	zero,32(sp)
  int score = 0;
     e58:	4401                	li	s0,0
  int count = 0;
     e5a:	ca02                	sw	zero,20(sp)
  int hart_cnt = 0;
     e5c:	c402                	sw	zero,8(sp)
  bool flip_flag = false;
     e5e:	cc02                	sw	zero,24(sp)
  int flip_c = 0;
     e60:	c802                	sw	zero,16(sp)
  character kuina = {100,kuina_1,kuina_1,kuina_2,0,init_kuina_x,init_kuina_y,16,16};
     e62:	c03e                	sw	a5,0(sp)
  int jump_progress = 0;
     e64:	c202                	sw	zero,4(sp)
  bool jump_flag = false;
     e66:	c602                	sw	zero,12(sp)
  bool button_state = false;
     e68:	ce02                	sw	zero,28(sp)
    uint8_t button_is_pressed = !GPIO_digitalRead(BTN_PIN); 
     e6a:	400117b7          	lui	a5,0x40011
     e6e:	40078793          	addi	a5,a5,1024 # 40011400 <__global_pointer$+0x20010c00>
     e72:	479c                	lw	a5,8(a5)
    if (!button_state && button_is_pressed && !jump_flag){
     e74:	4772                	lw	a4,28(sp)
     e76:	8b89                	andi	a5,a5,2
     e78:	e311                	bnez	a4,e7c <main+0xe8>
     e7a:	cbc1                	beqz	a5,f0a <main+0x176>
    button_state = button_is_pressed;
     e7c:	0017b793          	seqz	a5,a5
     e80:	ce3e                	sw	a5,28(sp)
    if (jump_flag && (max_jump * 2) < jump_progress){
     e82:	47b2                	lw	a5,12(sp)
     e84:	c395                	beqz	a5,ea8 <main+0x114>
     e86:	4712                	lw	a4,4(sp)
     e88:	03c00793          	li	a5,60
     e8c:	08e7c563          	blt	a5,a4,f16 <main+0x182>
    else if (jump_flag && max_jump >= jump_progress){
     e90:	4692                	lw	a3,4(sp)
      jump_progress += 1;
     e92:	00170793          	addi	a5,a4,1
    else if (jump_flag && max_jump >= jump_progress){
     e96:	4779                	li	a4,30
     e98:	06d74c63          	blt	a4,a3,f10 <main+0x17c>
      kuina.y -= 1;
     e9c:	4702                	lw	a4,0(sp)
     e9e:	177d                	addi	a4,a4,-1
      jump_progress += 1;
     ea0:	c23e                	sw	a5,4(sp)
      kuina.y += 1;
     ea2:	4785                	li	a5,1
     ea4:	c03a                	sw	a4,0(sp)
     ea6:	c63e                	sw	a5,12(sp)
    flip_c ++;
     ea8:	47c2                	lw	a5,16(sp)
     eaa:	0785                	addi	a5,a5,1
     eac:	c83e                	sw	a5,16(sp)
    if (flip_c > 20) {
     eae:	4742                	lw	a4,16(sp)
     eb0:	47d5                	li	a5,21
     eb2:	00f71763          	bne	a4,a5,ec0 <main+0x12c>
      flip_flag = !flip_flag;
     eb6:	47e2                	lw	a5,24(sp)
      flip_c = 0;
     eb8:	c802                	sw	zero,16(sp)
      flip_flag = !flip_flag;
     eba:	0017c793          	xori	a5,a5,1
     ebe:	cc3e                	sw	a5,24(sp)
    if (enemy[0].x < 0) {
     ec0:	47ca                	lw	a5,144(sp)
     ec2:	0c07d163          	bgez	a5,f84 <main+0x1f0>
      enemy[0] = enemy[1];
     ec6:	02400613          	li	a2,36
     eca:	110c                	addi	a1,sp,160
     ecc:	18e8                	addi	a0,sp,124
     ece:	3ced                	jal	9c8 <memcpy>
      enemy[1] = enemy[2];
     ed0:	02400613          	li	a2,36
     ed4:	01cc                	addi	a1,sp,196
     ed6:	1108                	addi	a0,sp,160
     ed8:	3cc5                	jal	9c8 <memcpy>
  int character_n = get_random(10);
     eda:	4529                	li	a0,10
     edc:	c4aff0ef          	jal	326 <get_random>
  if (character_n <= 5){
     ee0:	4795                	li	a5,5
     ee2:	04a7c063          	blt	a5,a0,f22 <main+0x18e>
    enemy[2].img = grass_1;
     ee6:	81818793          	addi	a5,gp,-2024 # 20000018 <grass_1>
     eea:	c5be                	sw	a5,200(sp)
    enemy[2].img_1 = grass_1;
     eec:	c7be                	sw	a5,204(sp)
    enemy[2].img_2 = grass_1;
     eee:	c9be                	sw	a5,208(sp)
    enemy[2].show = true;
     ef0:	4785                	li	a5,1
     ef2:	0cf10a23          	sb	a5,212(sp)
    enemy[2].y = 53;
     ef6:	03500793          	li	a5,53
     efa:	cfbe                	sw	a5,220(sp)
    enemy[2].id = 0;
     efc:	c382                	sw	zero,196(sp)
    enemy[2].w = 8;
     efe:	47a1                	li	a5,8
    enemy[2].w = 8;
     f00:	d1be                	sw	a5,224(sp)
     f02:	a885                	j	f72 <main+0x1de>
		if(ssd1306_cmd(*cmd_list++))
     f04:	0405                	addi	s0,s0,1
     f06:	3451                	jal	98a <ssd1306_cmd.isra.0>
     f08:	b705                	j	e28 <main+0x94>
    button_state = button_is_pressed;
     f0a:	4785                	li	a5,1
     f0c:	ce3e                	sw	a5,28(sp)
     f0e:	bfa5                	j	e86 <main+0xf2>
      kuina.y += 1;
     f10:	4702                	lw	a4,0(sp)
     f12:	0705                	addi	a4,a4,1
     f14:	b771                	j	ea0 <main+0x10c>
      kuina.y = init_kuina_y;
     f16:	02d00793          	li	a5,45
     f1a:	c03e                	sw	a5,0(sp)
      jump_progress = 0;
     f1c:	c202                	sw	zero,4(sp)
      jump_flag = false;
     f1e:	c602                	sw	zero,12(sp)
     f20:	b761                	j	ea8 <main+0x114>
  else if (character_n <= 8){
     f22:	47a1                	li	a5,8
     f24:	02a7c163          	blt	a5,a0,f46 <main+0x1b2>
    enemy[2].img = pineapple_1;
     f28:	6789                	lui	a5,0x2
     f2a:	b0078793          	addi	a5,a5,-1280 # 1b00 <pineapple_1>
    enemy[2].id = 1;
     f2e:	4705                	li	a4,1
    enemy[2].img = pineapple_1;
     f30:	c5be                	sw	a5,200(sp)
    enemy[2].img_1 = pineapple_1;
     f32:	c7be                	sw	a5,204(sp)
    enemy[2].img_2 = pineapple_1;
     f34:	c9be                	sw	a5,208(sp)
    enemy[2].y = 45;
     f36:	02d00793          	li	a5,45
     f3a:	cfbe                	sw	a5,220(sp)
    enemy[2].id = 1;
     f3c:	c3ba                	sw	a4,196(sp)
    enemy[2].show = true;
     f3e:	0ce10a23          	sb	a4,212(sp)
    enemy[2].w = 16;
     f42:	47c1                	li	a5,16
     f44:	bf75                	j	f00 <main+0x16c>
  else if (character_n <= 9){
     f46:	4725                	li	a4,9
     f48:	1ce51763          	bne	a0,a4,1116 <main+0x382>
    enemy[2].id = 2;
     f4c:	4709                	li	a4,2
     f4e:	c3ba                	sw	a4,196(sp)
    enemy[2].img = mongoose_1;
     f50:	6709                	lui	a4,0x2
     f52:	af070713          	addi	a4,a4,-1296 # 1af0 <mongoose_1>
     f56:	c5ba                	sw	a4,200(sp)
    enemy[2].img_1 = mongoose_1;
     f58:	c7ba                	sw	a4,204(sp)
    enemy[2].img_2 = mongoose_2;
     f5a:	6709                	lui	a4,0x2
     f5c:	ae070713          	addi	a4,a4,-1312 # 1ae0 <mongoose_2>
     f60:	c9ba                	sw	a4,208(sp)
    enemy[2].show = true;
     f62:	4705                	li	a4,1
     f64:	0ce10a23          	sb	a4,212(sp)
    enemy[2].y = 53;
     f68:	03500713          	li	a4,53
     f6c:	cfba                	sw	a4,220(sp)
    enemy[2].w = 16;
     f6e:	4741                	li	a4,16
     f70:	d1ba                	sw	a4,224(sp)
    enemy[2].h = 8;
     f72:	d3be                	sw	a5,228(sp)
  int enemy_distance = get_random(30);
     f74:	4579                	li	a0,30
     f76:	bb0ff0ef          	jal	326 <get_random>
  enemy[2].x = enemy[1].x + distance_buffer + enemy_distance;
     f7a:	57da                	lw	a5,180(sp)
     f7c:	03c78793          	addi	a5,a5,60
     f80:	97aa                	add	a5,a5,a0
     f82:	cdbe                	sw	a5,216(sp)
    if (flip_flag){
     f84:	47e2                	lw	a5,24(sp)
     f86:	1a078d63          	beqz	a5,1140 <main+0x3ac>
      enemy[0].img = enemy[0].img_1;
     f8a:	10bc                	addi	a5,sp,104
     f8c:	4fd8                	lw	a4,28(a5)
      kuina.img = kuina.img_1;
     f8e:	6489                	lui	s1,0x2
     f90:	b6048493          	addi	s1,s1,-1184 # 1b60 <kuina_1>
      enemy[0].img = enemy[0].img_1;
     f94:	cf98                	sw	a4,24(a5)
      enemy[1].img = enemy[1].img_1;
     f96:	43b8                	lw	a4,64(a5)
     f98:	dfd8                	sw	a4,60(a5)
      enemy[2].img = enemy[2].img_1;
     f9a:	53fc                	lw	a5,100(a5)
     f9c:	c5be                	sw	a5,200(sp)
     f9e:	18fc                	addi	a5,sp,124
      if (enemy[i].show) {
     fa0:	0107c303          	lbu	t1,16(a5)
        ssd1306_drawImage(enemy[i].x, enemy[i].y, enemy[i].img, enemy[i].w, enemy[i].h, 0);
     fa4:	4bc8                	lw	a0,20(a5)
      if (enemy[i].show) {
     fa6:	02030063          	beqz	t1,fc6 <main+0x232>
        ssd1306_drawImage(enemy[i].x, enemy[i].y, enemy[i].img, enemy[i].w, enemy[i].h, 0);
     faa:	0207c703          	lbu	a4,32(a5)
     fae:	01c7c683          	lbu	a3,28(a5)
     fb2:	43d0                	lw	a2,4(a5)
     fb4:	4f8c                	lw	a1,24(a5)
     fb6:	d61a                	sw	t1,44(sp)
     fb8:	d43e                	sw	a5,40(sp)
     fba:	d22a                	sw	a0,36(sp)
     fbc:	c6eff0ef          	jal	42a <ssd1306_drawImage.constprop.0>
     fc0:	5332                	lw	t1,44(sp)
     fc2:	57a2                	lw	a5,40(sp)
     fc4:	5512                	lw	a0,36(sp)
      enemy[i].x -= 1;
     fc6:	fff50713          	addi	a4,a0,-1
     fca:	cbd8                	sw	a4,20(a5)
      if (kuina.x + 12 < enemy[i].x + 12 && (kuina.x + 4 + kuina.w) > enemy[i].x + 12 && kuina.y > (init_kuina_y - enemy[i].h)) {
     fcc:	153d                	addi	a0,a0,-17
     fce:	4719                	li	a4,6
     fd0:	18a76c63          	bltu	a4,a0,1168 <main+0x3d4>
     fd4:	5394                	lw	a3,32(a5)
     fd6:	02d00713          	li	a4,45
     fda:	8f15                	sub	a4,a4,a3
     fdc:	4682                	lw	a3,0(sp)
     fde:	18d75563          	bge	a4,a3,1168 <main+0x3d4>
        if (enemy[i].id == 1 | enemy[i].id == 2){
     fe2:	4398                	lw	a4,0(a5)
     fe4:	4685                	li	a3,1
     fe6:	fff70613          	addi	a2,a4,-1
     fea:	16c6e563          	bltu	a3,a2,1154 <main+0x3c0>
		      ssd1306_drawstr_sz(25,20, "GAME OVER!!", 1, fontsize_8x8);
     fee:	6605                	lui	a2,0x1
     ff0:	25c60613          	addi	a2,a2,604 # 125c <main+0x4c8>
     ff4:	45d1                	li	a1,20
     ff6:	4565                	li	a0,25
     ff8:	b70ff0ef          	jal	368 <ssd1306_drawstr_sz.constprop.0>
          loop_flag = false;
     ffc:	d202                	sw	zero,36(sp)
    if (hart_flag && hart_cnt < 60) {
     ffe:	5782                	lw	a5,32(sp)
    1000:	16078c63          	beqz	a5,1178 <main+0x3e4>
    1004:	4722                	lw	a4,8(sp)
    1006:	03c00793          	li	a5,60
    100a:	16f70963          	beq	a4,a5,117c <main+0x3e8>
      ssd1306_drawImage(20, 30, hart, 8, 8, 0);
    100e:	4721                	li	a4,8
    1010:	86ba                	mv	a3,a4
    1012:	82018613          	addi	a2,gp,-2016 # 20000020 <hart>
    1016:	45f9                	li	a1,30
    1018:	4551                	li	a0,20
    101a:	c10ff0ef          	jal	42a <ssd1306_drawImage.constprop.0>
      hart_cnt ++;
    101e:	47a2                	lw	a5,8(sp)
    1020:	0785                	addi	a5,a5,1
    1022:	c43e                	sw	a5,8(sp)
    ssd1306_drawImage(kuina.x, kuina.y, kuina.img, kuina.w, kuina.h, 0);
    1024:	4582                	lw	a1,0(sp)
    1026:	4741                	li	a4,16
    1028:	86ba                	mv	a3,a4
    102a:	8626                	mv	a2,s1
    102c:	453d                	li	a0,15
    102e:	bfcff0ef          	jal	42a <ssd1306_drawImage.constprop.0>
    count += 1;
    1032:	47d2                	lw	a5,20(sp)
    1034:	0785                	addi	a5,a5,1
    1036:	ca3e                	sw	a5,20(sp)
    if (count > 10) {
    1038:	4752                	lw	a4,20(sp)
    103a:	47ad                	li	a5,11
    103c:	00f71463          	bne	a4,a5,1044 <main+0x2b0>
      score += 1;
    1040:	0405                	addi	s0,s0,1
      count = 0;
    1042:	ca02                	sw	zero,20(sp)
    char score_txt[30] = "Score:"; 
    1044:	726f67b7          	lui	a5,0x726f6
    1048:	35378793          	addi	a5,a5,851 # 726f6353 <__global_pointer$+0x526f5b53>
    104c:	de3e                	sw	a5,60(sp)
    104e:	6791                	lui	a5,0x4
    1050:	a6578793          	addi	a5,a5,-1435 # 3a65 <main.c.5e928d26+0x11bd>
    1054:	4659                	li	a2,22
    1056:	4581                	li	a1,0
    1058:	00c8                	addi	a0,sp,68
    105a:	c0be                	sw	a5,64(sp)
    105c:	94bff0ef          	jal	9a6 <memset>
    if (num < 0) {
    1060:	12045163          	bgez	s0,1182 <main+0x3ee>
        num = -num;
    1064:	408004b3          	neg	s1,s0
        isNegative = 1;
    1068:	4305                	li	t1,1
    106a:	08f8                	addi	a4,sp,92
    106c:	863a                	mv	a2,a4
    106e:	4781                	li	a5,0
    1070:	d83e                	sw	a5,48(sp)
        str[i++] = (num % 10) + '0';  // 
    1072:	45a9                	li	a1,10
    1074:	0785                	addi	a5,a5,1
    1076:	8526                	mv	a0,s1
    1078:	dc1a                	sw	t1,56(sp)
    107a:	da3a                	sw	a4,52(sp)
    107c:	d63e                	sw	a5,44(sp)
    107e:	d432                	sw	a2,40(sp)
    1080:	890ff0ef          	jal	110 <__modsi3>
    1084:	5622                	lw	a2,40(sp)
    1086:	03050513          	addi	a0,a0,48
        num /= 10;
    108a:	45a9                	li	a1,10
        str[i++] = (num % 10) + '0';  // 
    108c:	00a60023          	sb	a0,0(a2)
        num /= 10;
    1090:	8526                	mv	a0,s1
    1092:	826ff0ef          	jal	b8 <__divsi3>
    } while (num != 0);
    1096:	5622                	lw	a2,40(sp)
    1098:	57b2                	lw	a5,44(sp)
    109a:	56c2                	lw	a3,48(sp)
    109c:	5752                	lw	a4,52(sp)
    109e:	5362                	lw	t1,56(sp)
        num /= 10;
    10a0:	84aa                	mv	s1,a0
    } while (num != 0);
    10a2:	0605                	addi	a2,a2,1
    10a4:	f571                	bnez	a0,1070 <main+0x2dc>
    if (isNegative) {
    10a6:	00030e63          	beqz	t1,10c2 <main+0x32e>
        str[i++] = '-';
    10aa:	00268613          	addi	a2,a3,2 # 40021002 <__global_pointer$+0x20020802>
    10ae:	186c                	addi	a1,sp,60
    10b0:	0ac78693          	addi	a3,a5,172
    10b4:	96ae                	add	a3,a3,a1
    10b6:	02d00593          	li	a1,45
    10ba:	f6b68a23          	sb	a1,-140(a3)
    10be:	86be                	mv	a3,a5
    10c0:	87b2                	mv	a5,a2
    str[i] = '\0';
    10c2:	0ac78793          	addi	a5,a5,172
    10c6:	1870                	addi	a2,sp,60
    10c8:	97b2                	add	a5,a5,a2
    10ca:	f6078a23          	sb	zero,-140(a5)
    while (start < end) {
    10ce:	08fc                	addi	a5,sp,92
    10d0:	97b6                	add	a5,a5,a3
    10d2:	40968633          	sub	a2,a3,s1
    10d6:	0ac4c963          	blt	s1,a2,1188 <main+0x3f4>
    10da:	187c                	addi	a5,sp,60
    while (*dest != '\0') {
    10dc:	0007c703          	lbu	a4,0(a5)
    10e0:	e361                	bnez	a4,11a0 <main+0x40c>
    10e2:	08f8                	addi	a4,sp,92
    while (*src != '\0') {
    10e4:	00074683          	lbu	a3,0(a4)
    10e8:	eed5                	bnez	a3,11a4 <main+0x410>
    *dest = '\0';
    10ea:	00078023          	sb	zero,0(a5)
		ssd1306_drawstr_sz(0,0, score_txt, 1, fontsize_8x8);
    10ee:	4685                	li	a3,1
    10f0:	1870                	addi	a2,sp,60
    10f2:	4581                	li	a1,0
    10f4:	4501                	li	a0,0
    10f6:	a72ff0ef          	jal	368 <ssd1306_drawstr_sz.constprop.0>
    ssd1306_refresh();
    10fa:	8ebff0ef          	jal	9e4 <ssd1306_refresh>
    ssd1306_setbuf(0);
    10fe:	8bbff0ef          	jal	9b8 <ssd1306_setbuf.constprop.0>
  while (loop_flag) {
    1102:	5792                	lw	a5,36(sp)
    1104:	d60793e3          	bnez	a5,e6a <main+0xd6>
	Delay_Ms(2000);
    1108:	00b72537          	lui	a0,0xb72
    110c:	b0050513          	addi	a0,a0,-1280 # b71b00 <main.c.5e928d26+0xb6f258>
    1110:	8f0ff0ef          	jal	200 <DelaySysTick>
}
    1114:	b32d                	j	e3e <main+0xaa>
  else if (character_n <= 10){
    1116:	4729                	li	a4,10
    1118:	e4e51ee3          	bne	a0,a4,f74 <main+0x1e0>
    enemy[2].id = 3;
    111c:	470d                	li	a4,3
    111e:	c3ba                	sw	a4,196(sp)
    enemy[2].img = earthworm_1;
    1120:	81018713          	addi	a4,gp,-2032 # 20000010 <earthworm_1>
    1124:	c5ba                	sw	a4,200(sp)
    enemy[2].img_1 = earthworm_1;
    1126:	c7ba                	sw	a4,204(sp)
    enemy[2].img_2 = earthworm_2;
    1128:	20000737          	lui	a4,0x20000
    112c:	00870713          	addi	a4,a4,8 # 20000008 <earthworm_2>
    1130:	c9ba                	sw	a4,208(sp)
    enemy[2].show = true;
    1132:	4705                	li	a4,1
    1134:	0ce10a23          	sb	a4,212(sp)
    enemy[2].y = 53;
    1138:	03500713          	li	a4,53
    113c:	cfba                	sw	a4,220(sp)
    113e:	b3c9                	j	f00 <main+0x16c>
      enemy[0].img = enemy[0].img_2;
    1140:	10bc                	addi	a5,sp,104
    1142:	5398                	lw	a4,32(a5)
      kuina.img = kuina.img_2;
    1144:	6489                	lui	s1,0x2
    1146:	b4048493          	addi	s1,s1,-1216 # 1b40 <kuina_2>
      enemy[0].img = enemy[0].img_2;
    114a:	cf98                	sw	a4,24(a5)
      enemy[1].img = enemy[1].img_2;
    114c:	43f8                	lw	a4,68(a5)
    114e:	dfd8                	sw	a4,60(a5)
      enemy[2].img = enemy[2].img_2;
    1150:	57bc                	lw	a5,104(a5)
    1152:	b5a9                	j	f9c <main+0x208>
        else if (enemy[i].id == 3 && enemy[i].show){
    1154:	468d                	li	a3,3
    1156:	00d71963          	bne	a4,a3,1168 <main+0x3d4>
    115a:	00030763          	beqz	t1,1168 <main+0x3d4>
          score += 100;
    115e:	06440413          	addi	s0,s0,100
          enemy[i].show = false;
    1162:	00078823          	sb	zero,16(a5)
          hart_flag = true;
    1166:	d01a                	sw	t1,32(sp)
    for (int i=0; i < 3; i++){
    1168:	02478793          	addi	a5,a5,36
    116c:	11b8                	addi	a4,sp,232
    116e:	e2e799e3          	bne	a5,a4,fa0 <main+0x20c>
    1172:	4785                	li	a5,1
    1174:	d23e                	sw	a5,36(sp)
    1176:	b561                	j	ffe <main+0x26a>
      hart_cnt = 0;
    1178:	c402                	sw	zero,8(sp)
    117a:	b56d                	j	1024 <main+0x290>
    117c:	c402                	sw	zero,8(sp)
      hart_flag = false;
    117e:	d002                	sw	zero,32(sp)
    1180:	b555                	j	1024 <main+0x290>
    1182:	84a2                	mv	s1,s0
    int isNegative = 0;
    1184:	4301                	li	t1,0
    1186:	b5d5                	j	106a <main+0x2d6>
        str[start] = str[end];
    1188:	0007c583          	lbu	a1,0(a5)
        char temp = str[start];
    118c:	00074603          	lbu	a2,0(a4)
        start++;
    1190:	0485                	addi	s1,s1,1
        str[start] = str[end];
    1192:	00b70023          	sb	a1,0(a4)
        str[end] = temp;
    1196:	00c78023          	sb	a2,0(a5)
        end--;
    119a:	0705                	addi	a4,a4,1
    119c:	17fd                	addi	a5,a5,-1
    119e:	bf15                	j	10d2 <main+0x33e>
        dest++;
    11a0:	0785                	addi	a5,a5,1
    11a2:	bf2d                	j	10dc <main+0x348>
        *dest = *src;
    11a4:	00d78023          	sb	a3,0(a5)
        src++;
    11a8:	0705                	addi	a4,a4,1
        dest++;
    11aa:	0785                	addi	a5,a5,1
        src++;
    11ac:	bf25                	j	10e4 <main+0x350>
    11ae:	0000                	unimp
    11b0:	0000                	unimp
    11b2:	0000                	unimp
    11b4:	0018                	.insn	2, 0x0018
    11b6:	2000                	.insn	2, 0x2000
    11b8:	0018                	.insn	2, 0x0018
    11ba:	2000                	.insn	2, 0x2000
    11bc:	0018                	.insn	2, 0x0018
    11be:	2000                	.insn	2, 0x2000
    11c0:	0001                	nop
    11c2:	0000                	unimp
    11c4:	0082                	c.slli64	ra
    11c6:	0000                	unimp
    11c8:	0035                	c.nop	13
    11ca:	0000                	unimp
    11cc:	0008                	.insn	2, 0x0008
    11ce:	0000                	unimp
    11d0:	0008                	.insn	2, 0x0008
    11d2:	0000                	unimp
    11d4:	0000                	unimp
    11d6:	0000                	unimp
    11d8:	0018                	.insn	2, 0x0018
    11da:	2000                	.insn	2, 0x2000
    11dc:	0018                	.insn	2, 0x0018
    11de:	2000                	.insn	2, 0x2000
    11e0:	0018                	.insn	2, 0x0018
    11e2:	2000                	.insn	2, 0x2000
    11e4:	0001                	nop
    11e6:	0000                	unimp
    11e8:	00a0                	addi	s0,sp,72
    11ea:	0000                	unimp
    11ec:	0035                	c.nop	13
    11ee:	0000                	unimp
    11f0:	0008                	.insn	2, 0x0008
    11f2:	0000                	unimp
    11f4:	0008                	.insn	2, 0x0008
    11f6:	0000                	unimp
    11f8:	0001                	nop
    11fa:	0000                	unimp
    11fc:	1b00                	addi	s0,sp,432
    11fe:	0000                	unimp
    1200:	1b00                	addi	s0,sp,432
    1202:	0000                	unimp
    1204:	1b00                	addi	s0,sp,432
    1206:	0000                	unimp
    1208:	0001                	nop
    120a:	0000                	unimp
    120c:	00d2                	slli	ra,ra,0x14
    120e:	0000                	unimp
    1210:	002d                	c.nop	11
    1212:	0000                	unimp
    1214:	0010                	.insn	2, 0x0010
    1216:	0000                	unimp
    1218:	0010                	.insn	2, 0x0010
    121a:	0000                	unimp
    121c:	31647373          	.insn	4, 0x31647373
    1220:	5f363033          	.insn	4, 0x5f363033
    1224:	3269                	jal	bae <opening+0x16a>
    1226:	72655f63          	bge	a0,t1,1964 <fontdata+0x6a0>
    122a:	6f72                	.insn	2, 0x6f72
    122c:	2072                	.insn	2, 0x2072
    122e:	202d                	jal	1258 <main+0x4c4>
    1230:	6974                	.insn	2, 0x6974
    1232:	656d                	lui	a0,0x1b
    1234:	2074756f          	jal	a0,48c3a <main.c.5e928d26+0x46392>
    1238:	74696177          	.insn	4, 0x74696177
    123c:	6e69                	lui	t3,0x1a
    123e:	6f662067          	.insn	4, 0x6f662067
    1242:	2072                	.insn	2, 0x2072
    1244:	7325                	lui	t1,0xfffe9
    1246:	0d0a                	slli	s10,s10,0x2
    1248:	0000                	unimp
    124a:	0000                	unimp
    124c:	4f4d                	li	t5,19
    124e:	5050                	lw	a2,36(s0)
    1250:	4e49                	li	t3,18
    1252:	74730047          	.insn	4, 0x74730047
    1256:	7261                	lui	tp,0xffff8
    1258:	0074                	addi	a3,sp,12
    125a:	0000                	unimp
    125c:	454d4147          	.insn	4, 0x454d4147
    1260:	4f20                	lw	s0,88(a4)
    1262:	4556                	lw	a0,84(sp)
    1264:	2152                	.insn	2, 0x2152
    1266:	0021                	c.nop	8
    1268:	6f6e                	.insn	2, 0x6f6e
    126a:	2074                	.insn	2, 0x2074
    126c:	7562                	.insn	2, 0x7562
    126e:	00007973          	.insn	4, 0x7973
    1272:	0000                	unimp
    1274:	616d                	addi	sp,sp,240
    1276:	72657473          	.insn	4, 0x72657473
    127a:	6d20                	.insn	2, 0x6d20
    127c:	0065646f          	jal	s0,57282 <main.c.5e928d26+0x549da>
    1280:	7274                	.insn	2, 0x7274
    1282:	6e61                	lui	t3,0x18
    1284:	74696d73          	.insn	4, 0x74696d73
    1288:	6d20                	.insn	2, 0x6d20
    128a:	0065646f          	jal	s0,57290 <main.c.5e928d26+0x549e8>
    128e:	0000                	unimp
    1290:	7874                	.insn	2, 0x7874
    1292:	6520                	.insn	2, 0x6520
    1294:	706d                	c.lui	zero,0xffffb
    1296:	7974                	.insn	2, 0x7974
    1298:	0000                	unimp
    129a:	0000                	unimp
    129c:	7274                	.insn	2, 0x7274
    129e:	6e61                	lui	t3,0x18
    12a0:	74696d73          	.insn	4, 0x74696d73
    12a4:	6320                	.insn	2, 0x6320
    12a6:	6c706d6f          	jal	s10,816c <main.c.5e928d26+0x58c4>
    12aa:	7465                	lui	s0,0xffff9
    12ac:	0065                	c.nop	25
	...

000012b0 <errstr>:
    12b0:	1268 0000 1274 0000 1280 0000 1290 0000     h...t...........
    12c0:	129c 0000                                   ....

000012c4 <fontdata>:
	...
    12cc:	817e 81a5 99bd 7e81 ff7e ffdb e7c3 7eff     ~......~~......~
    12dc:	fe6c fefe 387c 0010 3810 fe7c 387c 0010     l...|8...8|.|8..
    12ec:	7c38 fe38 d6fe 3810 3810 fe7c 7cfe 3810     8|8....8.8|..|.8
    12fc:	0000 3c18 183c 0000 ffff c3e7 e7c3 ffff     ...<<...........
    130c:	3c00 4266 6642 003c c3ff bd99 99bd ffc3     .<fBBf<.........
    131c:	070f 7d0f cccc 78cc 663c 6666 183c 187e     ...}...x<fff<.~.
    132c:	333f 303f 7030 e0f0 637f 637f 6763 c0e6     ?3?00p...c.ccg..
    133c:	db18 e73c 3ce7 18db e080 fef8 e0f8 0080     ..<..<..........
    134c:	0e02 fe3e 0e3e 0002 3c18 187e 7e18 183c     ..>.>....<~..~<.
    135c:	6666 6666 0066 0066 db7f 7bdb 1b1b 001b     fffff.f....{....
    136c:	613e 663c 3c66 7c86 0000 0000 7e7e 007e     >a<ff<.|....~~~.
    137c:	3c18 187e 3c7e ff18 3c18 187e 1818 0018     .<~.~<...<~.....
    138c:	1818 1818 3c7e 0018 1800 fe0c 180c 0000     ....~<..........
    139c:	3000 fe60 3060 0000 0000 c0c0 fec0 0000     .0`.`0..........
    13ac:	2400 ff66 2466 0000 1800 7e3c ffff 0000     .$f.f$....<~....
    13bc:	ff00 7eff 183c 0000 0000 0000 0000 0000     ...~<...........
    13cc:	3c18 183c 0018 0018 6666 0024 0000 0000     .<<.....ff$.....
    13dc:	6c6c 6cfe 6cfe 006c 3e18 3c60 7c06 0018     ll.l.ll..>`<.|..
    13ec:	c600 18cc 6630 00c6 6c38 7638 ccdc 0076     ....0f..8l8v..v.
    13fc:	1818 0030 0000 0000 180c 3030 1830 000c     ..0.......000...
    140c:	1830 0c0c 180c 0030 6600 ff3c 663c 0000     0.....0..f<.<f..
    141c:	1800 7e18 1818 0000 0000 0000 1800 3018     ...~...........0
    142c:	0000 7e00 0000 0000 0000 0000 1800 0018     ...~............
    143c:	0c06 3018 c060 0080 6c38 d6c6 6cc6 0038     ...0`...8l...l8.
    144c:	3818 1818 1818 007e c67c 1c06 6630 00fe     .8....~.|...0f..
    145c:	c67c 3c06 c606 007c 3c1c cc6c 0cfe 001e     |..<..|..<l.....
    146c:	c0fe fcc0 c606 007c 6038 fcc0 c6c6 007c     ......|.8`....|.
    147c:	c6fe 180c 3030 0030 c67c 7cc6 c6c6 007c     ....000.|..|..|.
    148c:	c67c 7ec6 0c06 0078 1800 0018 1800 0018     |..~..x.........
    149c:	1800 0018 1800 3018 0c06 3018 0c18 0006     .......0...0....
    14ac:	0000 007e 7e00 0000 3060 0c18 3018 0060     ..~..~..`0...0`.
    14bc:	c67c 180c 0018 0018 c67c dede c0de 0078     |.......|.....x.
    14cc:	6c38 fec6 c6c6 00c6 66fc 7c66 6666 00fc     8l.......ff|ff..
    14dc:	663c c0c0 66c0 003c 6cf8 6666 6c66 00f8     <f...f<..lfffl..
    14ec:	62fe 7868 6268 00fe 62fe 7868 6068 00f0     .bhxhb...bhxh`..
    14fc:	663c c0c0 66ce 003a c6c6 fec6 c6c6 00c6     <f...f:.........
    150c:	183c 1818 1818 003c 0c1e 0c0c cccc 0078     <.....<.......x.
    151c:	66e6 786c 666c 00e6 60f0 6060 6662 00fe     .flxlf...```bf..
    152c:	eec6 fefe c6d6 00c6 e6c6 def6 c6ce 00c6     ................
    153c:	c67c c6c6 c6c6 007c 66fc 7c66 6060 00f0     |.....|..ff|``..
    154c:	c67c c6c6 cec6 0e7c 66fc 7c66 666c 00e6     |.....|..ff|lf..
    155c:	663c 1830 660c 003c 7e7e 185a 1818 003c     <f0..f<.~~Z...<.
    156c:	c6c6 c6c6 c6c6 007c c6c6 c6c6 6cc6 0038     ......|......l8.
    157c:	c6c6 d6c6 fed6 006c c6c6 386c c66c 00c6     ......l...l8l...
    158c:	6666 3c66 1818 003c c6fe 188c 6632 00fe     fff<..<.....2f..
    159c:	303c 3030 3030 003c 60c0 1830 060c 0002     <00000<..`0.....
    15ac:	0c3c 0c0c 0c0c 003c 3810 c66c 0000 0000     <.....<..8l.....
    15bc:	0000 0000 0000 ff00 1830 000c 0000 0000     ........0.......
    15cc:	0000 0c78 cc7c 0076 60e0 667c 6666 00dc     ..x.|.v..`|fff..
    15dc:	0000 c67c c6c0 007c 0c1c cc7c cccc 0076     ..|...|...|...v.
    15ec:	0000 c67c c0fe 007c 663c f860 6060 00f0     ..|...|.<f`.``..
    15fc:	0000 cc76 7ccc f80c 60e0 766c 6666 00e6     ..v..|...`lvff..
    160c:	0018 1838 1818 003c 0006 0606 6606 3c66     ..8...<......ff<
    161c:	60e0 6c66 6c78 00e6 1838 1818 1818 003c     .`flxl..8.....<.
    162c:	0000 feec d6d6 00d6 0000 66dc 6666 0066     ...........ffff.
    163c:	0000 c67c c6c6 007c 0000 66dc 7c66 f060     ..|...|....ff|`.
    164c:	0000 cc76 7ccc 1e0c 0000 76dc 6060 00f0     ..v..|.....v``..
    165c:	0000 c07e 067c 00fc 3030 30fc 3630 001c     ..~.|...00.006..
    166c:	0000 cccc cccc 0076 0000 c6c6 6cc6 0038     ......v......l8.
    167c:	0000 d6c6 fed6 006c 0000 6cc6 6c38 00c6     ......l....l8l..
    168c:	0000 c6c6 7ec6 fc06 0000 4c7e 3218 007e     .....~....~L.2~.
    169c:	180e 7018 1818 000e 1818 1818 1818 0018     ...p............
    16ac:	1870 0e18 1818 0070 dc76 0000 0000 0000     p.....p.v.......
    16bc:	1000 6c38 c6c6 00fe c67c c0c0 7cc6 780c     ..8l....|....|.x
    16cc:	00cc cccc cccc 0076 180c c67c c0fe 007c     ......v...|...|.
    16dc:	827c 0c78 cc7c 0076 00c6 0c78 cc7c 0076     |.x.|.v...x.|.v.
    16ec:	1830 0c78 cc7c 0076 3030 0c78 cc7c 0076     0.x.|.v.00x.|.v.
    16fc:	0000 c07e 7ec0 380c 827c c67c c0fe 007c     ..~..~.8|.|...|.
    170c:	00c6 c67c c0fe 007c 1830 c67c c0fe 007c     ..|...|.0.|...|.
    171c:	0066 1838 1818 003c 827c 1838 1818 003c     f.8...<.|.8...<.
    172c:	1830 3800 1818 003c 38c6 c66c c6fe 00c6     0..8..<..8l.....
    173c:	6c38 c67c c6fe 00c6 3018 c0fe c0f8 00fe     8l|......0......
    174c:	0000 187e d87e 007e 6c3e fecc cccc 00ce     ..~.~.~.>l......
    175c:	827c c67c c6c6 007c 00c6 c67c c6c6 007c     |.|...|...|...|.
    176c:	1830 c67c c6c6 007c 8478 cc00 cccc 0076     0.|...|.x.....v.
    177c:	3060 cccc cccc 0076 00c6 c6c6 7ec6 fc06     `0....v......~..
    178c:	38c6 c66c 6cc6 0038 00c6 c6c6 c6c6 007c     .8l..l8.......|.
    179c:	1818 c07e 7ec0 1818 6c38 f064 6660 00fc     ..~..~..8ld.`f..
    17ac:	6666 7e3c 7e18 1818 ccf8 facc cfc6 c7c6     ff<~.~..........
    17bc:	1b0e 3c18 d818 0070 3018 0c78 cc7c 0076     ...<..p..0x.|.v.
    17cc:	180c 3800 1818 003c 180c c67c c6c6 007c     ...8..<...|...|.
    17dc:	3018 cccc cccc 0076 dc76 dc00 6666 0066     .0....v.v...fff.
    17ec:	dc76 e600 def6 00ce 6c3c 3e6c 7e00 0000     v.......<ll>.~..
    17fc:	6c38 386c 7c00 0000 0018 1818 6330 003e     8ll8.|......0c>.
    180c:	0000 fe00 c0c0 0000 0000 fe00 0606 0000     ................
    181c:	e663 7e6c 6633 0fcc e663 7a6c 6a36 06df     c.l~3f..c.lz6j..
    182c:	0018 1818 3c3c 0018 3300 cc66 3366 0000     ....<<...3f.f3..
    183c:	cc00 3366 cc66 0000 8822 8822 8822 8822     ..f3f...".".".".
    184c:	aa55 aa55 aa55 aa55 dd77 dd77 dd77 dd77     U.U.U.U.w.w.w.w.
    185c:	1818 1818 1818 1818 1818 1818 18f8 1818     ................
    186c:	1818 18f8 18f8 1818 3636 3636 36f6 3636     ........6666.666
    187c:	0000 0000 36fe 3636 0000 18f8 18f8 1818     .....666........
    188c:	3636 06f6 36f6 3636 3636 3636 3636 3636     66...66666666666
    189c:	0000 06fe 36f6 3636 3636 06f6 00fe 0000     .....66666......
    18ac:	3636 3636 00fe 0000 1818 18f8 00f8 0000     6666............
    18bc:	0000 0000 18f8 1818 1818 1818 001f 0000     ................
    18cc:	1818 1818 00ff 0000 0000 0000 18ff 1818     ................
    18dc:	1818 1818 181f 1818 0000 0000 00ff 0000     ................
    18ec:	1818 1818 18ff 1818 1818 181f 181f 1818     ................
    18fc:	3636 3636 3637 3636 3636 3037 003f 0000     666676666670?...
    190c:	0000 303f 3637 3636 3636 00f7 00ff 0000     ..?0766666......
    191c:	0000 00ff 36f7 3636 3636 3037 3637 3636     .....66666707666
    192c:	0000 00ff 00ff 0000 3636 00f7 36f7 3636     ........66...666
    193c:	1818 00ff 00ff 0000 3636 3636 00ff 0000     ........6666....
    194c:	0000 00ff 18ff 1818 0000 0000 36ff 3636     .............666
    195c:	3636 3636 003f 0000 1818 181f 001f 0000     6666?...........
    196c:	0000 181f 181f 1818 0000 0000 363f 3636     ............?666
    197c:	3636 3636 36ff 3636 1818 18ff 18ff 1818     6666.666........
    198c:	1818 1818 00f8 0000 0000 0000 181f 1818     ................
    199c:	ffff ffff ffff ffff 0000 0000 ffff ffff     ................
    19ac:	f0f0 f0f0 f0f0 f0f0 0f0f 0f0f 0f0f 0f0f     ................
    19bc:	ffff ffff 0000 0000 0000 dc76 dcc8 0076     ..........v...v.
    19cc:	cc78 d8cc c6cc 00cc c6fe c0c0 c0c0 00c0     x...............
    19dc:	0000 6cfe 6c6c 006c c6fe 3060 c660 00fe     ...llll...`0`...
    19ec:	0000 d87e d8d8 0070 0000 6666 6666 c07c     ..~...p...ffff|.
    19fc:	7600 18dc 1818 0018 187e 663c 3c66 7e18     .v......~.<ff<.~
    1a0c:	6c38 fec6 6cc6 0038 6c38 c6c6 6c6c 00ee     8l...l8.8l..ll..
    1a1c:	180e 3e0c 6666 003c 0000 db7e 7edb 0000     ...>ff<...~..~..
    1a2c:	0c06 db7e 7edb c060 301e 7e60 3060 001e     ..~..~`..0`~`0..
    1a3c:	7c00 c6c6 c6c6 00c6 fe00 fe00 fe00 0000     .|..............
    1a4c:	1818 187e 0018 007e 1830 180c 0030 007e     ..~...~.0...0.~.
    1a5c:	180c 1830 000c 007e 1b0e 181b 1818 1818     ..0...~.........
    1a6c:	1818 1818 d818 70d8 1800 7e00 1800 0000     .......p...~....
    1a7c:	7600 00dc dc76 0000 6c38 386c 0000 0000     .v..v...8ll8....
    1a8c:	0000 1800 0018 0000 0000 1800 0000 0000     ................
    1a9c:	0c0f 0c0c 6cec 1c3c 366c 3636 0036 0000     .....l<.l6666...
    1aac:	0c78 3018 007c 0000 0000 3c3c 3c3c 0000     x..0|.....<<<<..
	...

00001ac4 <ssd1306_init_array>:
    1ac4:	d5ae a880 d33f 4000 148d 0020 c8a1 12da     ....?..@.. .....
    1ad4:	8f81 f1d9 40db a6a4 ffaf 0000               .....@......

00001ae0 <mongoose_2>:
    1ae0:	1800 1e00 ff1f ff7f fecf f007 3006 300e     .............0.0

00001af0 <mongoose_1>:
    1af0:	0800 8e0f ff1f fd7f ffee f08f 681e 4c13     .............h.L

00001b00 <pineapple_1>:
    1b00:	0008 600c 4862 b01b 600f c007 600d a00a     ...`bH...`...`..
    1b10:	600d a00a 600d c7e7 1e79 f81f f00f c007     .`...`..y.......

00001b20 <mongoose_left_2>:
    1b20:	0018 0078 f8ff feff f37f e00f 600c 700c     ..x..........`.p

00001b30 <mongoose_left_1>:
    1b30:	0010 f071 f8ff febf 77ff f10f 7816 c832     ..q......w...x2.

00001b40 <kuina_2>:
    1b40:	c03f c03f c0f3 c0f3 fc3f fc3f ff33 ff33     ?.?.....?.?.3.3.
    1b50:	cf00 cf00 3c33 3c33 c00c c00c 3030 3030     ....3<3<....0000

00001b60 <kuina_1>:
    1b60:	c03f c03f c0f3 c0f3 fc3f fc3f ff33 ff33     ?.?.....?.?.3.3.
    1b70:	cf00 cf00 3c33 3c33 c00c c00c c00c c00c     ....3<3<........
