
main.elf:     file format elf32-littleriscv


Disassembly of section .init:

00000000 <InterruptVector>:
   0:	5780006f          	j	578 <handle_reset>
   4:	00000000          	.word	0x00000000
   8:	000005f6          	.word	0x000005f6
   c:	000005f4          	.word	0x000005f4
	...
  30:	000005f4          	.word	0x000005f4
  34:	00000000          	.word	0x00000000
  38:	000005f4          	.word	0x000005f4
  3c:	00000000          	.word	0x00000000
  40:	000005f4          	.word	0x000005f4
  44:	000005f4          	.word	0x000005f4
  48:	000005f4          	.word	0x000005f4
  4c:	000005f4          	.word	0x000005f4
  50:	000005f4          	.word	0x000005f4
  54:	000005f4          	.word	0x000005f4
  58:	000005f4          	.word	0x000005f4
  5c:	000005f4          	.word	0x000005f4
  60:	000005f4          	.word	0x000005f4
  64:	000005f4          	.word	0x000005f4
  68:	000005f4          	.word	0x000005f4
  6c:	000005f4          	.word	0x000005f4
  70:	000005f4          	.word	0x000005f4
  74:	000005f4          	.word	0x000005f4
  78:	000005f4          	.word	0x000005f4
  7c:	000005f4          	.word	0x000005f4
  80:	000005f4          	.word	0x000005f4
  84:	000005f4          	.word	0x000005f4
  88:	000005f4          	.word	0x000005f4
  8c:	000005f4          	.word	0x000005f4
  90:	000005f4          	.word	0x000005f4
  94:	000005f4          	.word	0x000005f4
  98:	000005f4          	.word	0x000005f4
  9c:	0000                	.insn	2, 0x
	...

Disassembly of section .text:

000000a0 <__mulsi3>:
      a0:	862a                	mv	a2,a0
      a2:	4501                	li	a0,0
      a4:	0015f693          	and	a3,a1,1
      a8:	c291                	beqz	a3,ac <__mulsi3+0xc>
      aa:	9532                	add	a0,a0,a2
      ac:	8185                	srl	a1,a1,0x1
      ae:	0606                	sll	a2,a2,0x1
      b0:	f9f5                	bnez	a1,a4 <__mulsi3+0x4>
      b2:	8082                	ret
      b4:	0000                	unimp
	...

000000b8 <__divsi3>:
      b8:	02054e63          	bltz	a0,f4 <__umodsi3+0x8>
      bc:	0405c363          	bltz	a1,102 <__umodsi3+0x16>

000000c0 <__hidden___udivsi3>:
      c0:	862e                	mv	a2,a1
      c2:	85aa                	mv	a1,a0
      c4:	557d                	li	a0,-1
      c6:	c215                	beqz	a2,ea <__hidden___udivsi3+0x2a>
      c8:	4685                	li	a3,1
      ca:	00b67863          	bgeu	a2,a1,da <__hidden___udivsi3+0x1a>
      ce:	00c05663          	blez	a2,da <__hidden___udivsi3+0x1a>
      d2:	0606                	sll	a2,a2,0x1
      d4:	0686                	sll	a3,a3,0x1
      d6:	feb66ce3          	bltu	a2,a1,ce <__hidden___udivsi3+0xe>
      da:	4501                	li	a0,0
      dc:	00c5e463          	bltu	a1,a2,e4 <__hidden___udivsi3+0x24>
      e0:	8d91                	sub	a1,a1,a2
      e2:	8d55                	or	a0,a0,a3
      e4:	8285                	srl	a3,a3,0x1
      e6:	8205                	srl	a2,a2,0x1
      e8:	faf5                	bnez	a3,dc <__hidden___udivsi3+0x1c>
      ea:	8082                	ret

000000ec <__umodsi3>:
      ec:	8286                	mv	t0,ra
      ee:	3fc9                	jal	c0 <__hidden___udivsi3>
      f0:	852e                	mv	a0,a1
      f2:	8282                	jr	t0
      f4:	40a00533          	neg	a0,a0
      f8:	00b04763          	bgtz	a1,106 <__umodsi3+0x1a>
      fc:	40b005b3          	neg	a1,a1
     100:	b7c1                	j	c0 <__hidden___udivsi3>
     102:	40b005b3          	neg	a1,a1
     106:	8286                	mv	t0,ra
     108:	3f65                	jal	c0 <__hidden___udivsi3>
     10a:	40a00533          	neg	a0,a0
     10e:	8282                	jr	t0

00000110 <__modsi3>:
     110:	8286                	mv	t0,ra
     112:	0005c763          	bltz	a1,120 <__modsi3+0x10>
     116:	00054963          	bltz	a0,128 <__modsi3+0x18>
     11a:	375d                	jal	c0 <__hidden___udivsi3>
     11c:	852e                	mv	a0,a1
     11e:	8282                	jr	t0
     120:	40b005b3          	neg	a1,a1
     124:	fe055be3          	bgez	a0,11a <__modsi3+0xa>
     128:	40a00533          	neg	a0,a0
     12c:	3f51                	jal	c0 <__hidden___udivsi3>
     12e:	40b00533          	neg	a0,a1
     132:	8282                	jr	t0
	...

00000136 <mini_pad>:
     136:	1131                	add	sp,sp,-20
     138:	c426                	sw	s1,8(sp)
     13a:	c806                	sw	ra,16(sp)
     13c:	c622                	sw	s0,12(sp)
     13e:	84ae                	mv	s1,a1
     140:	87aa                	mv	a5,a0
     142:	85b2                	mv	a1,a2
     144:	c699                	beqz	a3,152 <mini_pad+0x1c>
     146:	4301                	li	t1,0
     148:	0096d763          	bge	a3,s1,156 <mini_pad+0x20>
     14c:	84b6                	mv	s1,a3
     14e:	4305                	li	t1,1
     150:	a019                	j	156 <mini_pad+0x20>
     152:	4301                	li	t1,0
     154:	86a6                	mv	a3,s1
     156:	40968433          	sub	s0,a3,s1
     15a:	00045363          	bgez	s0,160 <mini_pad+0x2a>
     15e:	4401                	li	s0,0
     160:	8622                	mv	a2,s0
     162:	853a                	mv	a0,a4
     164:	c23e                	sw	a5,4(sp)
     166:	c01a                	sw	t1,0(sp)
     168:	7da000ef          	jal	942 <memset>
     16c:	4302                	lw	t1,0(sp)
     16e:	4792                	lw	a5,4(sp)
     170:	872a                	mv	a4,a0
     172:	008506b3          	add	a3,a0,s0
     176:	4601                	li	a2,0
     178:	40c485b3          	sub	a1,s1,a2
     17c:	04b04263          	bgtz	a1,1c0 <mini_pad+0x8a>
     180:	0004d363          	bgez	s1,186 <mini_pad+0x50>
     184:	4481                	li	s1,0
     186:	009685b3          	add	a1,a3,s1
     18a:	40e58533          	sub	a0,a1,a4
     18e:	02030463          	beqz	t1,1b6 <mini_pad+0x80>
     192:	02b77263          	bgeu	a4,a1,1b6 <mini_pad+0x80>
     196:	02a00793          	li	a5,42
     19a:	fef58fa3          	sb	a5,-1(a1)
     19e:	fff58693          	add	a3,a1,-1
     1a2:	00d77a63          	bgeu	a4,a3,1b6 <mini_pad+0x80>
     1a6:	fef58f23          	sb	a5,-2(a1)
     1aa:	ffe58693          	add	a3,a1,-2
     1ae:	00d77463          	bgeu	a4,a3,1b6 <mini_pad+0x80>
     1b2:	fef58ea3          	sb	a5,-3(a1)
     1b6:	40c2                	lw	ra,16(sp)
     1b8:	4432                	lw	s0,12(sp)
     1ba:	44a2                	lw	s1,8(sp)
     1bc:	0151                	add	sp,sp,20
     1be:	8082                	ret
     1c0:	00c785b3          	add	a1,a5,a2
     1c4:	0005c503          	lbu	a0,0(a1)
     1c8:	00c685b3          	add	a1,a3,a2
     1cc:	0605                	add	a2,a2,1
     1ce:	00a58023          	sb	a0,0(a1)
     1d2:	b75d                	j	178 <mini_pad+0x42>

000001d4 <DelaySysTick>:
     1d4:	e000f7b7          	lui	a5,0xe000f
     1d8:	479c                	lw	a5,8(a5)
     1da:	e000f737          	lui	a4,0xe000f
     1de:	953e                	add	a0,a0,a5
     1e0:	471c                	lw	a5,8(a4)
     1e2:	8f89                	sub	a5,a5,a0
     1e4:	fe07cee3          	bltz	a5,1e0 <DelaySysTick+0xc>
     1e8:	8082                	ret

000001ea <mini_itoa.part.0>:
     1ea:	1101                	add	sp,sp,-32
     1ec:	ce06                	sw	ra,28(sp)
     1ee:	cc22                	sw	s0,24(sp)
     1f0:	ca26                	sw	s1,20(sp)
     1f2:	c002                	sw	zero,0(sp)
     1f4:	832a                	mv	t1,a0
     1f6:	00055763          	bgez	a0,204 <mini_itoa.part.0+0x1a>
     1fa:	e689                	bnez	a3,204 <mini_itoa.part.0+0x1a>
     1fc:	4785                	li	a5,1
     1fe:	40a00333          	neg	t1,a0
     202:	c03e                	sw	a5,0(sp)
     204:	8a05                	and	a2,a2,1
     206:	06100413          	li	s0,97
     20a:	c219                	beqz	a2,210 <mini_itoa.part.0+0x26>
     20c:	04100413          	li	s0,65
     210:	84ba                	mv	s1,a4
     212:	1459                	add	s0,s0,-10
     214:	851a                	mv	a0,t1
     216:	c83a                	sw	a4,16(sp)
     218:	c21a                	sw	t1,4(sp)
     21a:	c62e                	sw	a1,12(sp)
     21c:	c41a                	sw	t1,8(sp)
     21e:	35f9                	jal	ec <__umodsi3>
     220:	47a5                	li	a5,9
     222:	4322                	lw	t1,8(sp)
     224:	45b2                	lw	a1,12(sp)
     226:	4742                	lw	a4,16(sp)
     228:	0ff57693          	zext.b	a3,a0
     22c:	06a7e163          	bltu	a5,a0,28e <mini_itoa.part.0+0xa4>
     230:	03068693          	add	a3,a3,48
     234:	0ff6f693          	zext.b	a3,a3
     238:	00148793          	add	a5,s1,1
     23c:	00d48023          	sb	a3,0(s1)
     240:	851a                	mv	a0,t1
     242:	c83a                	sw	a4,16(sp)
     244:	c63e                	sw	a5,12(sp)
     246:	c42e                	sw	a1,8(sp)
     248:	3da5                	jal	c0 <__hidden___udivsi3>
     24a:	4692                	lw	a3,4(sp)
     24c:	45a2                	lw	a1,8(sp)
     24e:	47b2                	lw	a5,12(sp)
     250:	4742                	lw	a4,16(sp)
     252:	832a                	mv	t1,a0
     254:	02b6fb63          	bgeu	a3,a1,28a <mini_itoa.part.0+0xa0>
     258:	4682                	lw	a3,0(sp)
     25a:	c699                	beqz	a3,268 <mini_itoa.part.0+0x7e>
     25c:	02d00693          	li	a3,45
     260:	00d78023          	sb	a3,0(a5) # e000f000 <__global_pointer$+0xc000e800>
     264:	00248793          	add	a5,s1,2
     268:	40e78533          	sub	a0,a5,a4
     26c:	01f55693          	srl	a3,a0,0x1f
     270:	96aa                	add	a3,a3,a0
     272:	00078023          	sb	zero,0(a5)
     276:	8685                	sra	a3,a3,0x1
     278:	4601                	li	a2,0
     27a:	17fd                	add	a5,a5,-1
     27c:	00d64b63          	blt	a2,a3,292 <mini_itoa.part.0+0xa8>
     280:	40f2                	lw	ra,28(sp)
     282:	4462                	lw	s0,24(sp)
     284:	44d2                	lw	s1,20(sp)
     286:	6105                	add	sp,sp,32
     288:	8082                	ret
     28a:	84be                	mv	s1,a5
     28c:	b761                	j	214 <mini_itoa.part.0+0x2a>
     28e:	96a2                	add	a3,a3,s0
     290:	b755                	j	234 <mini_itoa.part.0+0x4a>
     292:	00c705b3          	add	a1,a4,a2
     296:	0007c283          	lbu	t0,0(a5)
     29a:	0005c303          	lbu	t1,0(a1)
     29e:	0605                	add	a2,a2,1
     2a0:	00558023          	sb	t0,0(a1)
     2a4:	00678023          	sb	t1,0(a5)
     2a8:	bfc9                	j	27a <mini_itoa.part.0+0x90>

000002aa <ssd1306_i2c_setup>:
void ssd1306_i2c_setup(void)
{
	uint16_t tempreg;
	
	// Reset I2C1 to init all regs
	RCC->APB1PRSTR |= RCC_APB1Periph_I2C1;
     2aa:	400217b7          	lui	a5,0x40021
     2ae:	4b98                	lw	a4,16(a5)
     2b0:	002006b7          	lui	a3,0x200
     2b4:	8f55                	or	a4,a4,a3
     2b6:	cb98                	sw	a4,16(a5)
	RCC->APB1PRSTR &= ~RCC_APB1Periph_I2C1;
     2b8:	4b98                	lw	a4,16(a5)
     2ba:	ffe006b7          	lui	a3,0xffe00
     2be:	16fd                	add	a3,a3,-1 # ffdfffff <__global_pointer$+0xdfdff7ff>
     2c0:	8f75                	and	a4,a4,a3
     2c2:	cb98                	sw	a4,16(a5)
	
	// set freq
	tempreg = I2C1->CTLR2;
     2c4:	400057b7          	lui	a5,0x40005
     2c8:	4047d703          	lhu	a4,1028(a5) # 40005404 <__global_pointer$+0x20004c04>
	tempreg &= ~I2C_CTLR2_FREQ;
     2cc:	66c1                	lui	a3,0x10
     2ce:	fc068693          	add	a3,a3,-64 # ffc0 <main.c.256160c4+0xd9ef>
     2d2:	8f75                	and	a4,a4,a3
	tempreg |= (FUNCONF_SYSTEM_CORE_CLOCK/SSD1306_I2C_PRERATE)&I2C_CTLR2_FREQ;
     2d4:	01876713          	or	a4,a4,24
	I2C1->CTLR2 = tempreg;
     2d8:	40e79223          	sh	a4,1028(a5)
	tempreg = (FUNCONF_SYSTEM_CORE_CLOCK/(25*SSD1306_I2C_CLKRATE))&I2C_CKCFGR_CCR;
	tempreg |= I2C_CKCFGR_DUTY;
#endif
	tempreg |= I2C_CKCFGR_FS;
#endif
	I2C1->CKCFGR = tempreg;
     2dc:	7771                	lui	a4,0xffffc
     2de:	0705                	add	a4,a4,1 # ffffc001 <__global_pointer$+0xdfffb801>
     2e0:	40e79e23          	sh	a4,1052(a5)
	// initialize the state
	ssd1306_i2c_irq_state = 0;
#endif
	
	// Enable I2C
	I2C1->CTLR1 |= I2C_CTLR1_PE;
     2e4:	4007d703          	lhu	a4,1024(a5)
     2e8:	00176713          	or	a4,a4,1
     2ec:	40e79023          	sh	a4,1024(a5)

	// set ACK mode
	I2C1->CTLR1 |= I2C_CTLR1_ACK;
     2f0:	4007d703          	lhu	a4,1024(a5)
     2f4:	40076713          	or	a4,a4,1024
     2f8:	40e79023          	sh	a4,1024(a5)
}
     2fc:	8082                	ret

000002fe <ssd1306_drawPixel>:
void ssd1306_drawPixel(uint8_t x, uint8_t y, uint8_t color)
{
	uint16_t addr;
	
	/* clip */
	if(x >= SSD1306_W)
     2fe:	01851793          	sll	a5,a0,0x18
     302:	87e1                	sra	a5,a5,0x18
     304:	0207c963          	bltz	a5,336 <ssd1306_drawPixel+0x38>
		return;
	if(y >= SSD1306_H)
     308:	03f00793          	li	a5,63
     30c:	02b7e563          	bltu	a5,a1,336 <ssd1306_drawPixel+0x38>
		return;
	
	/* compute buffer address */
	addr = x + SSD1306_W*(y/8);
     310:	0035d793          	srl	a5,a1,0x3
     314:	079e                	sll	a5,a5,0x7
	
	/* set/clear bit in buffer */
	if(color)
		ssd1306_buffer[addr] |= (1<<(y&7));
     316:	953e                	add	a0,a0,a5
     318:	200007b7          	lui	a5,0x20000
     31c:	00078793          	mv	a5,a5
     320:	97aa                	add	a5,a5,a0
     322:	899d                	and	a1,a1,7
     324:	4685                	li	a3,1
     326:	0007c703          	lbu	a4,0(a5) # 20000000 <ssd1306_buffer>
     32a:	00b695b3          	sll	a1,a3,a1
	if(color)
     32e:	c609                	beqz	a2,338 <ssd1306_drawPixel+0x3a>
		ssd1306_buffer[addr] |= (1<<(y&7));
     330:	8f4d                	or	a4,a4,a1
	else
		ssd1306_buffer[addr] &= ~(1<<(y&7));
     332:	00e78023          	sb	a4,0(a5)
}
     336:	8082                	ret
		ssd1306_buffer[addr] &= ~(1<<(y&7));
     338:	fff5c593          	not	a1,a1
     33c:	8f6d                	and	a4,a4,a1
     33e:	bfd5                	j	332 <ssd1306_drawPixel+0x34>

00000340 <ssd1306_fillRect.constprop.0>:
}

/*
 * fill a rectangle
 */
void ssd1306_fillRect(uint8_t x, uint8_t y, uint8_t w, uint8_t h, uint8_t color)
     340:	1131                	add	sp,sp,-20
     342:	02050793          	add	a5,a0,32
     346:	c622                	sw	s0,12(sp)
     348:	c806                	sw	ra,16(sp)
     34a:	c426                	sw	s1,8(sp)
     34c:	842a                	mv	s0,a0
     34e:	862e                	mv	a2,a1
     350:	0ff7f793          	zext.b	a5,a5
	uint8_t m, n=y, iw = w;
	
	/* scan vertical */
	while(h--)
	{
		m=x;
     354:	4481                	li	s1,0
     356:	8526                	mv	a0,s1
		w=iw;
		/* scan horizontal */
		while(w--)
		{
			/* invert pixels */
			ssd1306_drawPixel(m++, n, color);
     358:	85a2                	mv	a1,s0
     35a:	c23e                	sw	a5,4(sp)
     35c:	c032                	sw	a2,0(sp)
     35e:	0485                	add	s1,s1,1
     360:	3f79                	jal	2fe <ssd1306_drawPixel>
     362:	0ff4f493          	zext.b	s1,s1
		while(w--)
     366:	4729                	li	a4,10
     368:	4602                	lw	a2,0(sp)
     36a:	4792                	lw	a5,4(sp)
     36c:	fee495e3          	bne	s1,a4,356 <ssd1306_fillRect.constprop.0+0x16>
		}
		n++;
     370:	0405                	add	s0,s0,1
     372:	0ff47413          	zext.b	s0,s0
	while(h--)
     376:	fcf41fe3          	bne	s0,a5,354 <ssd1306_fillRect.constprop.0+0x14>
	}
}
     37a:	40c2                	lw	ra,16(sp)
     37c:	4432                	lw	s0,12(sp)
     37e:	44a2                	lw	s1,8(sp)
     380:	0151                	add	sp,sp,20
     382:	8082                	ret

00000384 <ssd1306_drawImage.constprop.0>:
void ssd1306_drawImage(uint8_t x, uint8_t y, const unsigned char* input, uint8_t width, uint8_t height, uint8_t color_mode) {
     384:	fd410113          	add	sp,sp,-44
	uint8_t bytes_to_draw = width / 8;
     388:	0036d793          	srl	a5,a3,0x3
     38c:	c03e                	sw	a5,0(sp)
void ssd1306_drawImage(uint8_t x, uint8_t y, const unsigned char* input, uint8_t width, uint8_t height, uint8_t color_mode) {
     38e:	d406                	sw	ra,40(sp)
     390:	d222                	sw	s0,36(sp)
     392:	d026                	sw	s1,32(sp)
     394:	c22a                	sw	a0,4(sp)
     396:	c832                	sw	a2,16(sp)
     398:	ca3a                	sw	a4,20(sp)
		if (y_absolute >= SSD1306_H) {
     39a:	03f00793          	li	a5,63
     39e:	0cb7e763          	bltu	a5,a1,46c <ssd1306_drawImage.constprop.0+0xe8>
     3a2:	4782                	lw	a5,0(sp)
     3a4:	20000737          	lui	a4,0x20000
     3a8:	00070713          	mv	a4,a4
     3ac:	078e                	sll	a5,a5,0x3
     3ae:	97aa                	add	a5,a5,a0
     3b0:	0ff7f793          	zext.b	a5,a5
     3b4:	c63e                	sw	a5,12(sp)
     3b6:	84ae                	mv	s1,a1
		y_absolute = y + line;
     3b8:	87ae                	mv	a5,a1
	for (uint8_t line = 0; line < height; line++) {
     3ba:	4401                	li	s0,0
     3bc:	cc3a                	sw	a4,24(sp)
			uint8_t input_byte = input[byte + line * bytes_to_draw];
     3be:	4582                	lw	a1,0(sp)
		uint8_t v_mask = 1 << (y_absolute & 7);
     3c0:	4705                	li	a4,1
     3c2:	0077f693          	and	a3,a5,7
				buffer_addr = x_absolute + SSD1306_W * (y_absolute / 8);
     3c6:	838d                	srl	a5,a5,0x3
		uint8_t v_mask = 1 << (y_absolute & 7);
     3c8:	00d716b3          	sll	a3,a4,a3
				buffer_addr = x_absolute + SSD1306_W * (y_absolute / 8);
     3cc:	079e                	sll	a5,a5,0x7
			uint8_t input_byte = input[byte + line * bytes_to_draw];
     3ce:	8522                	mv	a0,s0
		uint8_t v_mask = 1 << (y_absolute & 7);
     3d0:	ce36                	sw	a3,28(sp)
				buffer_addr = x_absolute + SSD1306_W * (y_absolute / 8);
     3d2:	c43e                	sw	a5,8(sp)
			uint8_t input_byte = input[byte + line * bytes_to_draw];
     3d4:	31f1                	jal	a0 <__mulsi3>
						ssd1306_buffer[buffer_addr] = (ssd1306_buffer[buffer_addr] & ~v_mask) | (input_pixel ? v_mask : 0);
     3d6:	46f2                	lw	a3,28(sp)
     3d8:	47c2                	lw	a5,16(sp)
     3da:	06e2                	sll	a3,a3,0x18
     3dc:	953e                	add	a0,a0,a5
     3de:	86e1                	sra	a3,a3,0x18
				buffer_addr = x_absolute + SSD1306_W * (y_absolute / 8);
     3e0:	47b2                	lw	a5,12(sp)
						ssd1306_buffer[buffer_addr] = (ssd1306_buffer[buffer_addr] & ~v_mask) | (input_pixel ? v_mask : 0);
     3e2:	fff6c713          	not	a4,a3
     3e6:	ce3a                	sw	a4,28(sp)
			uint8_t input_byte = input[byte + line * bytes_to_draw];
     3e8:	00054703          	lbu	a4,0(a0)
     3ec:	83ba                	mv	t2,a4
				if (x_absolute >= SSD1306_W) {
     3ee:	01879713          	sll	a4,a5,0x18
     3f2:	8761                	sra	a4,a4,0x18
     3f4:	04074763          	bltz	a4,442 <ssd1306_drawImage.constprop.0+0xbe>
     3f8:	4722                	lw	a4,8(sp)
     3fa:	4581                	li	a1,0
     3fc:	00e78633          	add	a2,a5,a4
     400:	4762                	lw	a4,24(sp)
     402:	963a                	add	a2,a2,a4
						ssd1306_buffer[buffer_addr] = (ssd1306_buffer[buffer_addr] & ~v_mask) | (input_pixel ? v_mask : 0);
     404:	4372                	lw	t1,28(sp)
     406:	00064703          	lbu	a4,0(a2)
     40a:	82b6                	mv	t0,a3
     40c:	00677733          	and	a4,a4,t1
				uint8_t input_pixel = input_byte & (1 << pixel);
     410:	4305                	li	t1,1
     412:	00b31333          	sll	t1,t1,a1
						ssd1306_buffer[buffer_addr] = (ssd1306_buffer[buffer_addr] & ~v_mask) | (input_pixel ? v_mask : 0);
     416:	0762                	sll	a4,a4,0x18
     418:	0063f333          	and	t1,t2,t1
     41c:	8761                	sra	a4,a4,0x18
     41e:	00031363          	bnez	t1,424 <ssd1306_drawImage.constprop.0+0xa0>
     422:	4281                	li	t0,0
     424:	00576733          	or	a4,a4,t0
     428:	00e60023          	sb	a4,0(a2)
			for (pixel = 0; pixel < 8; pixel++) {
     42c:	471d                	li	a4,7
     42e:	00e58a63          	beq	a1,a4,442 <ssd1306_drawImage.constprop.0+0xbe>
				if (x_absolute >= SSD1306_W) {
     432:	0585                	add	a1,a1,1
     434:	00b78733          	add	a4,a5,a1
     438:	0762                	sll	a4,a4,0x18
     43a:	8761                	sra	a4,a4,0x18
     43c:	0605                	add	a2,a2,1
     43e:	fc0753e3          	bgez	a4,404 <ssd1306_drawImage.constprop.0+0x80>
		for (uint8_t byte = 0; byte < bytes_to_draw; byte++) {
     442:	4712                	lw	a4,4(sp)
     444:	17e1                	add	a5,a5,-8
     446:	0ff7f793          	zext.b	a5,a5
     44a:	0505                	add	a0,a0,1
     44c:	f8f71ee3          	bne	a4,a5,3e8 <ssd1306_drawImage.constprop.0+0x64>
	for (uint8_t line = 0; line < height; line++) {
     450:	47d2                	lw	a5,20(sp)
     452:	0405                	add	s0,s0,1
     454:	0ff47413          	zext.b	s0,s0
     458:	00f47a63          	bgeu	s0,a5,46c <ssd1306_drawImage.constprop.0+0xe8>
		y_absolute = y + line;
     45c:	008487b3          	add	a5,s1,s0
     460:	0ff7f793          	zext.b	a5,a5
		if (y_absolute >= SSD1306_H) {
     464:	03f00713          	li	a4,63
     468:	f4f77be3          	bgeu	a4,a5,3be <ssd1306_drawImage.constprop.0+0x3a>
}
     46c:	50a2                	lw	ra,40(sp)
     46e:	5412                	lw	s0,36(sp)
     470:	5482                	lw	s1,32(sp)
     472:	02c10113          	add	sp,sp,44
     476:	8082                	ret

00000478 <internal_handle_input.constprop.0>:
     478:	e00007b7          	lui	a5,0xe0000
     47c:	0f478793          	add	a5,a5,244 # e00000f4 <__global_pointer$+0xbffff8f4>
     480:	439c                	lw	a5,0(a5)
     482:	8082                	ret

00000484 <_write.constprop.0>:
     484:	1101                	add	sp,sp,-32
     486:	cc22                	sw	s0,24(sp)
     488:	ce06                	sw	ra,28(sp)
     48a:	ca26                	sw	s1,20(sp)
     48c:	c02a                	sw	a0,0(sp)
     48e:	c802                	sw	zero,16(sp)
     490:	842e                	mv	s0,a1
     492:	e1f9                	bnez	a1,558 <_write.constprop.0+0xd4>
     494:	e00007b7          	lui	a5,0xe0000
     498:	0f478793          	add	a5,a5,244 # e00000f4 <__global_pointer$+0xbffff8f4>
     49c:	439c                	lw	a5,0(a5)
     49e:	c789                	beqz	a5,4a8 <_write.constprop.0+0x24>
     4a0:	0807f793          	and	a5,a5,128
     4a4:	e391                	bnez	a5,4a8 <_write.constprop.0+0x24>
     4a6:	3fc9                	jal	478 <internal_handle_input.constprop.0>
     4a8:	40f2                	lw	ra,28(sp)
     4aa:	8522                	mv	a0,s0
     4ac:	4462                	lw	s0,24(sp)
     4ae:	44d2                	lw	s1,20(sp)
     4b0:	6105                	add	sp,sp,32
     4b2:	8082                	ret
     4b4:	409406b3          	sub	a3,s0,s1
     4b8:	461d                	li	a2,7
     4ba:	8736                	mv	a4,a3
     4bc:	00d65363          	bge	a2,a3,4c2 <_write.constprop.0+0x3e>
     4c0:	471d                	li	a4,7
     4c2:	00027637          	lui	a2,0x27
     4c6:	10160613          	add	a2,a2,257 # 27101 <main.c.256160c4+0x24b30>
     4ca:	00032583          	lw	a1,0(t1)
     4ce:	0805f513          	and	a0,a1,128
     4d2:	ed3d                	bnez	a0,550 <_write.constprop.0+0xcc>
     4d4:	c981                	beqz	a1,4e4 <_write.constprop.0+0x60>
     4d6:	c61a                	sw	t1,12(sp)
     4d8:	c43a                	sw	a4,8(sp)
     4da:	c236                	sw	a3,4(sp)
     4dc:	3f71                	jal	478 <internal_handle_input.constprop.0>
     4de:	4332                	lw	t1,12(sp)
     4e0:	4722                	lw	a4,8(sp)
     4e2:	4692                	lw	a3,4(sp)
     4e4:	0036a693          	slti	a3,a3,3
     4e8:	4601                	li	a2,0
     4ea:	e299                	bnez	a3,4f0 <_write.constprop.0+0x6c>
     4ec:	ffd70613          	add	a2,a4,-3 # 1ffffffd <main.c.256160c4+0x1fffda2c>
     4f0:	4782                	lw	a5,0(sp)
     4f2:	00348593          	add	a1,s1,3
     4f6:	0808                	add	a0,sp,16
     4f8:	95be                	add	a1,a1,a5
     4fa:	c41a                	sw	t1,8(sp)
     4fc:	c23a                	sw	a4,4(sp)
     4fe:	219d                	jal	964 <memcpy>
     500:	4642                	lw	a2,16(sp)
     502:	4782                	lw	a5,0(sp)
     504:	e00006b7          	lui	a3,0xe0000
     508:	4322                	lw	t1,8(sp)
     50a:	4712                	lw	a4,4(sp)
     50c:	0f868693          	add	a3,a3,248 # e00000f8 <__global_pointer$+0xbffff8f8>
     510:	c290                	sw	a2,0(a3)
     512:	458d                	li	a1,3
     514:	00978633          	add	a2,a5,s1
     518:	4681                	li	a3,0
     51a:	00064283          	lbu	t0,0(a2)
     51e:	0685                	add	a3,a3,1
     520:	01068793          	add	a5,a3,16
     524:	00278533          	add	a0,a5,sp
     528:	00550023          	sb	t0,0(a0)
     52c:	00d70563          	beq	a4,a3,536 <_write.constprop.0+0xb2>
     530:	0605                	add	a2,a2,1
     532:	feb694e3          	bne	a3,a1,51a <_write.constprop.0+0x96>
     536:	00470693          	add	a3,a4,4
     53a:	f806e693          	or	a3,a3,-128
     53e:	00d10823          	sb	a3,16(sp)
     542:	46c2                	lw	a3,16(sp)
     544:	94ba                	add	s1,s1,a4
     546:	00d32023          	sw	a3,0(t1)
     54a:	f684c5e3          	blt	s1,s0,4b4 <_write.constprop.0+0x30>
     54e:	bfa9                	j	4a8 <_write.constprop.0+0x24>
     550:	167d                	add	a2,a2,-1
     552:	fe25                	bnez	a2,4ca <_write.constprop.0+0x46>
     554:	8426                	mv	s0,s1
     556:	bf89                	j	4a8 <_write.constprop.0+0x24>
     558:	e0000337          	lui	t1,0xe0000
     55c:	4481                	li	s1,0
     55e:	0f430313          	add	t1,t1,244 # e00000f4 <__global_pointer$+0xbffff8f4>
     562:	b7e5                	j	54a <_write.constprop.0+0xc6>

00000564 <__puts_uart>:
     564:	1151                	add	sp,sp,-12
     566:	c222                	sw	s0,4(sp)
     568:	c406                	sw	ra,8(sp)
     56a:	842e                	mv	s0,a1
     56c:	3f21                	jal	484 <_write.constprop.0>
     56e:	40a2                	lw	ra,8(sp)
     570:	8522                	mv	a0,s0
     572:	4412                	lw	s0,4(sp)
     574:	0131                	add	sp,sp,12
     576:	8082                	ret

00000578 <handle_reset>:
     578:	20000197          	auipc	gp,0x20000
     57c:	28818193          	add	gp,gp,648 # 20000800 <__global_pointer$>
     580:	00018113          	mv	sp,gp
     584:	08000513          	li	a0,128
     588:	30051073          	csrw	mstatus,a0
     58c:	468d                	li	a3,3
     58e:	00000517          	auipc	a0,0x0
     592:	a7250513          	add	a0,a0,-1422 # 0 <InterruptVector>
     596:	8d55                	or	a0,a0,a3
     598:	30551073          	csrw	mtvec,a0
     59c:	20000517          	auipc	a0,0x20000
     5a0:	a6450513          	add	a0,a0,-1436 # 20000000 <ssd1306_buffer>
     5a4:	c0018593          	add	a1,gp,-1024 # 20000400 <_ebss>
     5a8:	4601                	li	a2,0
     5aa:	00b55663          	bge	a0,a1,5b6 <handle_reset+0x3e>
     5ae:	c110                	sw	a2,0(a0)
     5b0:	0511                	add	a0,a0,4
     5b2:	feb54ee3          	blt	a0,a1,5ae <handle_reset+0x36>
     5b6:	00001517          	auipc	a0,0x1
     5ba:	5fa50513          	add	a0,a0,1530 # 1bb0 <_data_lma>
     5be:	20000597          	auipc	a1,0x20000
     5c2:	a4258593          	add	a1,a1,-1470 # 20000000 <ssd1306_buffer>
     5c6:	20000617          	auipc	a2,0x20000
     5ca:	a3a60613          	add	a2,a2,-1478 # 20000000 <ssd1306_buffer>
     5ce:	00c58863          	beq	a1,a2,5de <handle_reset+0x66>
     5d2:	4114                	lw	a3,0(a0)
     5d4:	c194                	sw	a3,0(a1)
     5d6:	0511                	add	a0,a0,4
     5d8:	0591                	add	a1,a1,4
     5da:	fec59ae3          	bne	a1,a2,5ce <handle_reset+0x56>
     5de:	e000f7b7          	lui	a5,0xe000f
     5e2:	4705                	li	a4,1
     5e4:	c398                	sw	a4,0(a5)
     5e6:	6785                	lui	a5,0x1
     5e8:	a4278793          	add	a5,a5,-1470 # a42 <main>
     5ec:	34179073          	csrw	mepc,a5
     5f0:	30200073          	mret

000005f4 <ADC1_IRQHandler>:
     5f4:	a001                	j	5f4 <ADC1_IRQHandler>

000005f6 <NMI_Handler>:
     5f6:	40021737          	lui	a4,0x40021
     5fa:	471c                	lw	a5,8(a4)
     5fc:	008006b7          	lui	a3,0x800
     600:	8fd5                	or	a5,a5,a3
     602:	c71c                	sw	a5,8(a4)

00000604 <strlen>:
     604:	87aa                	mv	a5,a0
     606:	0007c703          	lbu	a4,0(a5)
     60a:	e701                	bnez	a4,612 <strlen+0xe>
     60c:	40a78533          	sub	a0,a5,a0
     610:	8082                	ret
     612:	0785                	add	a5,a5,1
     614:	bfcd                	j	606 <strlen+0x2>

00000616 <mini_vpprintf>:
     616:	fa410113          	add	sp,sp,-92
     61a:	caa2                	sw	s0,84(sp)
     61c:	c8a6                	sw	s1,80(sp)
     61e:	cc86                	sw	ra,88(sp)
     620:	c02a                	sw	a0,0(sp)
     622:	c22e                	sw	a1,4(sp)
     624:	8432                	mv	s0,a2
     626:	84b6                	mv	s1,a3
     628:	ca02                	sw	zero,20(sp)
     62a:	00044783          	lbu	a5,0(s0)
     62e:	00140693          	add	a3,s0,1
     632:	00f10fa3          	sb	a5,31(sp)
     636:	eb81                	bnez	a5,646 <mini_vpprintf+0x30>
     638:	40e6                	lw	ra,88(sp)
     63a:	4456                	lw	s0,84(sp)
     63c:	4552                	lw	a0,20(sp)
     63e:	44c6                	lw	s1,80(sp)
     640:	05c10113          	add	sp,sp,92
     644:	8082                	ret
     646:	c636                	sw	a3,12(sp)
     648:	02500713          	li	a4,37
     64c:	02e78063          	beq	a5,a4,66c <mini_vpprintf+0x56>
     650:	4612                	lw	a2,4(sp)
     652:	4782                	lw	a5,0(sp)
     654:	4585                	li	a1,1
     656:	01f10513          	add	a0,sp,31
     65a:	9782                	jalr	a5
     65c:	46b2                	lw	a3,12(sp)
     65e:	c426                	sw	s1,8(sp)
     660:	8436                	mv	s0,a3
     662:	47d2                	lw	a5,20(sp)
     664:	44a2                	lw	s1,8(sp)
     666:	97aa                	add	a5,a5,a0
     668:	ca3e                	sw	a5,20(sp)
     66a:	b7c1                	j	62a <mini_vpprintf+0x14>
     66c:	00144703          	lbu	a4,1(s0)
     670:	03000613          	li	a2,48
     674:	03000693          	li	a3,48
     678:	00e10fa3          	sb	a4,31(sp)
     67c:	c632                	sw	a2,12(sp)
     67e:	00240793          	add	a5,s0,2
     682:	08d71263          	bne	a4,a3,706 <mini_vpprintf+0xf0>
     686:	843e                	mv	s0,a5
     688:	4681                	li	a3,0
     68a:	4781                	li	a5,0
     68c:	45a5                	li	a1,9
     68e:	a811                	j	6a2 <mini_vpprintf+0x8c>
     690:	00279713          	sll	a4,a5,0x2
     694:	0405                	add	s0,s0,1
     696:	97ba                	add	a5,a5,a4
     698:	fff44703          	lbu	a4,-1(s0)
     69c:	0786                	sll	a5,a5,0x1
     69e:	97b2                	add	a5,a5,a2
     6a0:	4685                	li	a3,1
     6a2:	fd070613          	add	a2,a4,-48 # 40020fd0 <__global_pointer$+0x200207d0>
     6a6:	0ff67513          	zext.b	a0,a2
     6aa:	fea5f3e3          	bgeu	a1,a0,690 <mini_vpprintf+0x7a>
     6ae:	c299                	beqz	a3,6b4 <mini_vpprintf+0x9e>
     6b0:	00e10fa3          	sb	a4,31(sp)
     6b4:	c83e                	sw	a5,16(sp)
     6b6:	46e1                	li	a3,24
     6b8:	00f6d363          	bge	a3,a5,6be <mini_vpprintf+0xa8>
     6bc:	c836                	sw	a3,16(sp)
     6be:	06c00613          	li	a2,108
     6c2:	4681                	li	a3,0
     6c4:	00c71863          	bne	a4,a2,6d4 <mini_vpprintf+0xbe>
     6c8:	00044703          	lbu	a4,0(s0)
     6cc:	4685                	li	a3,1
     6ce:	0405                	add	s0,s0,1
     6d0:	00e10fa3          	sb	a4,31(sp)
     6d4:	01f14603          	lbu	a2,31(sp)
     6d8:	06400713          	li	a4,100
     6dc:	06e60563          	beq	a2,a4,746 <mini_vpprintf+0x130>
     6e0:	02c76763          	bltu	a4,a2,70e <mini_vpprintf+0xf8>
     6e4:	05800793          	li	a5,88
     6e8:	0af60063          	beq	a2,a5,788 <mini_vpprintf+0x172>
     6ec:	06300793          	li	a5,99
     6f0:	0af60d63          	beq	a2,a5,7aa <mini_vpprintf+0x194>
     6f4:	d231                	beqz	a2,638 <mini_vpprintf+0x22>
     6f6:	4612                	lw	a2,4(sp)
     6f8:	4782                	lw	a5,0(sp)
     6fa:	4585                	li	a1,1
     6fc:	01f10513          	add	a0,sp,31
     700:	9782                	jalr	a5
     702:	c426                	sw	s1,8(sp)
     704:	bfb9                	j	662 <mini_vpprintf+0x4c>
     706:	02000693          	li	a3,32
     70a:	c636                	sw	a3,12(sp)
     70c:	bfad                	j	686 <mini_vpprintf+0x70>
     70e:	07500713          	li	a4,117
     712:	02e60a63          	beq	a2,a4,746 <mini_vpprintf+0x130>
     716:	07800713          	li	a4,120
     71a:	06e60763          	beq	a2,a4,788 <mini_vpprintf+0x172>
     71e:	07300713          	li	a4,115
     722:	fce61ae3          	bne	a2,a4,6f6 <mini_vpprintf+0xe0>
     726:	cc3e                	sw	a5,24(sp)
     728:	00448793          	add	a5,s1,4
     72c:	4084                	lw	s1,0(s1)
     72e:	c43e                	sw	a5,8(sp)
     730:	8526                	mv	a0,s1
     732:	3dc9                	jal	604 <strlen>
     734:	47e2                	lw	a5,24(sp)
     736:	85aa                	mv	a1,a0
     738:	08f05663          	blez	a5,7c4 <mini_vpprintf+0x1ae>
     73c:	46c2                	lw	a3,16(sp)
     73e:	4632                	lw	a2,12(sp)
     740:	1838                	add	a4,sp,56
     742:	8526                	mv	a0,s1
     744:	a01d                	j	76a <mini_vpprintf+0x154>
     746:	00448793          	add	a5,s1,4
     74a:	c43e                	sw	a5,8(sp)
     74c:	c695                	beqz	a3,778 <mini_vpprintf+0x162>
     74e:	f8b60613          	add	a2,a2,-117
     752:	1018                	add	a4,sp,32
     754:	00163693          	seqz	a3,a2
     758:	4088                	lw	a0,0(s1)
     75a:	4601                	li	a2,0
     75c:	45a9                	li	a1,10
     75e:	3471                	jal	1ea <mini_itoa.part.0>
     760:	46c2                	lw	a3,16(sp)
     762:	4632                	lw	a2,12(sp)
     764:	1838                	add	a4,sp,56
     766:	85aa                	mv	a1,a0
     768:	1008                	add	a0,sp,32
     76a:	32f1                	jal	136 <mini_pad>
     76c:	4612                	lw	a2,4(sp)
     76e:	85aa                	mv	a1,a0
     770:	1828                	add	a0,sp,56
     772:	4782                	lw	a5,0(sp)
     774:	9782                	jalr	a5
     776:	b5f5                	j	662 <mini_vpprintf+0x4c>
     778:	07500793          	li	a5,117
     77c:	1018                	add	a4,sp,32
     77e:	4685                	li	a3,1
     780:	fcf60ce3          	beq	a2,a5,758 <mini_vpprintf+0x142>
     784:	4681                	li	a3,0
     786:	bfc9                	j	758 <mini_vpprintf+0x142>
     788:	4088                	lw	a0,0(s1)
     78a:	fa860613          	add	a2,a2,-88
     78e:	00448793          	add	a5,s1,4
     792:	1018                	add	a4,sp,32
     794:	4685                	li	a3,1
     796:	00163613          	seqz	a2,a2
     79a:	45c1                	li	a1,16
     79c:	c43e                	sw	a5,8(sp)
     79e:	34b1                	jal	1ea <mini_itoa.part.0>
     7a0:	46c2                	lw	a3,16(sp)
     7a2:	4632                	lw	a2,12(sp)
     7a4:	85aa                	mv	a1,a0
     7a6:	1838                	add	a4,sp,56
     7a8:	b7c1                	j	768 <mini_vpprintf+0x152>
     7aa:	00448793          	add	a5,s1,4
     7ae:	c43e                	sw	a5,8(sp)
     7b0:	409c                	lw	a5,0(s1)
     7b2:	46c2                	lw	a3,16(sp)
     7b4:	4632                	lw	a2,12(sp)
     7b6:	00f10fa3          	sb	a5,31(sp)
     7ba:	1838                	add	a4,sp,56
     7bc:	4585                	li	a1,1
     7be:	01f10513          	add	a0,sp,31
     7c2:	b765                	j	76a <mini_vpprintf+0x154>
     7c4:	4612                	lw	a2,4(sp)
     7c6:	8526                	mv	a0,s1
     7c8:	b76d                	j	772 <mini_vpprintf+0x15c>

000007ca <printf>:
     7ca:	fdc10113          	add	sp,sp,-36
     7ce:	ca32                	sw	a2,20(sp)
     7d0:	862a                	mv	a2,a0
     7d2:	c82e                	sw	a1,16(sp)
     7d4:	cc36                	sw	a3,24(sp)
     7d6:	4581                	li	a1,0
     7d8:	0814                	add	a3,sp,16
     7da:	56400513          	li	a0,1380
     7de:	c606                	sw	ra,12(sp)
     7e0:	ce3a                	sw	a4,28(sp)
     7e2:	d03e                	sw	a5,32(sp)
     7e4:	c036                	sw	a3,0(sp)
     7e6:	3d05                	jal	616 <mini_vpprintf>
     7e8:	40b2                	lw	ra,12(sp)
     7ea:	02410113          	add	sp,sp,36
     7ee:	8082                	ret

000007f0 <ssd1306_i2c_error.isra.0>:
 * error handler
 */
uint8_t ssd1306_i2c_error(uint8_t err)
{
	// report error
	printf("ssd1306_i2c_error - timeout waiting for %s\n\r", errstr[err]);
     7f0:	6785                	lui	a5,0x1
     7f2:	050a                	sll	a0,a0,0x2
     7f4:	ea878793          	add	a5,a5,-344 # ea8 <errstr>
     7f8:	97aa                	add	a5,a5,a0
     7fa:	438c                	lw	a1,0(a5)
     7fc:	6505                	lui	a0,0x1
uint8_t ssd1306_i2c_error(uint8_t err)
     7fe:	1151                	add	sp,sp,-12
	printf("ssd1306_i2c_error - timeout waiting for %s\n\r", errstr[err]);
     800:	e2450513          	add	a0,a0,-476 # e24 <main+0x3e2>
uint8_t ssd1306_i2c_error(uint8_t err)
     804:	c406                	sw	ra,8(sp)
	printf("ssd1306_i2c_error - timeout waiting for %s\n\r", errstr[err]);
     806:	37d1                	jal	7ca <printf>
	
	// reset & initialize I2C
	ssd1306_i2c_setup();

	return 1;
}
     808:	40a2                	lw	ra,8(sp)
     80a:	0131                	add	sp,sp,12
	ssd1306_i2c_setup();
     80c:	bc79                	j	2aa <ssd1306_i2c_setup>

0000080e <ssd1306_i2c_send.constprop.0.isra.0>:
uint8_t ssd1306_i2c_send(uint8_t addr, uint8_t *data, uint8_t sz)
{
	int32_t timeout;
	
	// wait for not busy
	timeout = TIMEOUT_MAX;
     80e:	6761                	lui	a4,0x18
	while((I2C1->STAR2 & I2C_STAR2_BUSY) && (timeout--));
     810:	400057b7          	lui	a5,0x40005
	timeout = TIMEOUT_MAX;
     814:	6a070713          	add	a4,a4,1696 # 186a0 <main.c.256160c4+0x160cf>
	while((I2C1->STAR2 & I2C_STAR2_BUSY) && (timeout--));
     818:	40078793          	add	a5,a5,1024 # 40005400 <__global_pointer$+0x20004c00>
     81c:	567d                	li	a2,-1
     81e:	0187d683          	lhu	a3,24(a5)
     822:	8a89                	and	a3,a3,2
     824:	c2f1                	beqz	a3,8e8 <ssd1306_i2c_send.constprop.0.isra.0+0xda>
     826:	177d                	add	a4,a4,-1
     828:	fec71be3          	bne	a4,a2,81e <ssd1306_i2c_send.constprop.0.isra.0+0x10>
	if(timeout==-1)
		return ssd1306_i2c_error(0);
     82c:	4501                	li	a0,0
     82e:	a01d                	j	854 <ssd1306_i2c_send.constprop.0.isra.0+0x46>
	// send data one byte at a time
	while(sz--)
	{
		// wait for TX Empty
		timeout = TIMEOUT_MAX;
		while(!(I2C1->STAR1 & I2C_STAR1_TXE) && (timeout--));
     830:	40005737          	lui	a4,0x40005
	while(sz--)
     834:	95aa                	add	a1,a1,a0
		while(!(I2C1->STAR1 & I2C_STAR1_TXE) && (timeout--));
     836:	40070713          	add	a4,a4,1024 # 40005400 <__global_pointer$+0x20004c00>
	while(sz--)
     83a:	0ff5f593          	zext.b	a1,a1
     83e:	67e1                	lui	a5,0x18
     840:	6a178793          	add	a5,a5,1697 # 186a1 <main.c.256160c4+0x160d0>
		while(!(I2C1->STAR1 & I2C_STAR1_TXE) && (timeout--));
     844:	01475683          	lhu	a3,20(a4)
     848:	0806f693          	and	a3,a3,128
     84c:	e689                	bnez	a3,856 <ssd1306_i2c_send.constprop.0.isra.0+0x48>
     84e:	17fd                	add	a5,a5,-1
     850:	fbf5                	bnez	a5,844 <ssd1306_i2c_send.constprop.0.isra.0+0x36>
		if(timeout==-1)
			return ssd1306_i2c_error(3);
     852:	450d                	li	a0,3
		return ssd1306_i2c_error(0);
     854:	bf71                	j	7f0 <ssd1306_i2c_error.isra.0>
		
		// send command
		I2C1->DATAR = *data++;
     856:	00054783          	lbu	a5,0(a0)
     85a:	0505                	add	a0,a0,1
     85c:	00f71823          	sh	a5,16(a4)
	while(sz--)
     860:	0ff57793          	zext.b	a5,a0
     864:	fcf59de3          	bne	a1,a5,83e <ssd1306_i2c_send.constprop.0.isra.0+0x30>
	}

	// wait for tx complete
	timeout = TIMEOUT_MAX;
     868:	66e1                	lui	a3,0x18
	uint32_t status = I2C1->STAR1 | (I2C1->STAR2<<16);
     86a:	40005737          	lui	a4,0x40005
	while((!ssd1306_i2c_chk_evt(SSD1306_I2C_EVENT_MASTER_BYTE_TRANSMITTED)) && (timeout--));
     86e:	00070637          	lui	a2,0x70
	timeout = TIMEOUT_MAX;
     872:	6a068693          	add	a3,a3,1696 # 186a0 <main.c.256160c4+0x160cf>
	uint32_t status = I2C1->STAR1 | (I2C1->STAR2<<16);
     876:	40070713          	add	a4,a4,1024 # 40005400 <__global_pointer$+0x20004c00>
	while((!ssd1306_i2c_chk_evt(SSD1306_I2C_EVENT_MASTER_BYTE_TRANSMITTED)) && (timeout--));
     87a:	08460613          	add	a2,a2,132 # 70084 <main.c.256160c4+0x6dab3>
     87e:	55fd                	li	a1,-1
	uint32_t status = I2C1->STAR1 | (I2C1->STAR2<<16);
     880:	01475503          	lhu	a0,20(a4)
     884:	01875783          	lhu	a5,24(a4)
     888:	07c2                	sll	a5,a5,0x10
     88a:	8fc9                	or	a5,a5,a0
	while((!ssd1306_i2c_chk_evt(SSD1306_I2C_EVENT_MASTER_BYTE_TRANSMITTED)) && (timeout--));
     88c:	8ff1                	and	a5,a5,a2
     88e:	00c78763          	beq	a5,a2,89c <ssd1306_i2c_send.constprop.0.isra.0+0x8e>
     892:	16fd                	add	a3,a3,-1
     894:	feb696e3          	bne	a3,a1,880 <ssd1306_i2c_send.constprop.0.isra.0+0x72>
	if(timeout==-1)
		return ssd1306_i2c_error(4);
     898:	4511                	li	a0,4
     89a:	bf6d                	j	854 <ssd1306_i2c_send.constprop.0.isra.0+0x46>

	// set STOP condition
	I2C1->CTLR1 |= I2C_CTLR1_STOP;
     89c:	00075783          	lhu	a5,0(a4)
     8a0:	2007e793          	or	a5,a5,512
     8a4:	00f71023          	sh	a5,0(a4)
	
	// we're happy
	return 0;
}
     8a8:	8082                	ret
	I2C1->DATAR = addr<<1;
     8aa:	07800793          	li	a5,120
     8ae:	00f71823          	sh	a5,16(a4)
	uint32_t status = I2C1->STAR1 | (I2C1->STAR2<<16);
     8b2:	40005637          	lui	a2,0x40005
	timeout = TIMEOUT_MAX;
     8b6:	6761                	lui	a4,0x18
	while((!ssd1306_i2c_chk_evt(SSD1306_I2C_EVENT_MASTER_TRANSMITTER_MODE_SELECTED)) && (timeout--));
     8b8:	000706b7          	lui	a3,0x70
	timeout = TIMEOUT_MAX;
     8bc:	6a070713          	add	a4,a4,1696 # 186a0 <main.c.256160c4+0x160cf>
	uint32_t status = I2C1->STAR1 | (I2C1->STAR2<<16);
     8c0:	40060613          	add	a2,a2,1024 # 40005400 <__global_pointer$+0x20004c00>
	while((!ssd1306_i2c_chk_evt(SSD1306_I2C_EVENT_MASTER_TRANSMITTER_MODE_SELECTED)) && (timeout--));
     8c4:	08268693          	add	a3,a3,130 # 70082 <main.c.256160c4+0x6dab1>
     8c8:	537d                	li	t1,-1
	uint32_t status = I2C1->STAR1 | (I2C1->STAR2<<16);
     8ca:	01465283          	lhu	t0,20(a2)
     8ce:	01865783          	lhu	a5,24(a2)
     8d2:	07c2                	sll	a5,a5,0x10
     8d4:	0057e7b3          	or	a5,a5,t0
	while((!ssd1306_i2c_chk_evt(SSD1306_I2C_EVENT_MASTER_TRANSMITTER_MODE_SELECTED)) && (timeout--));
     8d8:	8ff5                	and	a5,a5,a3
     8da:	f4d78be3          	beq	a5,a3,830 <ssd1306_i2c_send.constprop.0.isra.0+0x22>
     8de:	177d                	add	a4,a4,-1
     8e0:	fe6715e3          	bne	a4,t1,8ca <ssd1306_i2c_send.constprop.0.isra.0+0xbc>
		return ssd1306_i2c_error(2);
     8e4:	4509                	li	a0,2
     8e6:	b7bd                	j	854 <ssd1306_i2c_send.constprop.0.isra.0+0x46>
	I2C1->CTLR1 |= I2C_CTLR1_START;
     8e8:	0007d703          	lhu	a4,0(a5)
	timeout = TIMEOUT_MAX;
     8ec:	66e1                	lui	a3,0x18
	while((!ssd1306_i2c_chk_evt(SSD1306_I2C_EVENT_MASTER_MODE_SELECT)) && (timeout--));
     8ee:	00030637          	lui	a2,0x30
	I2C1->CTLR1 |= I2C_CTLR1_START;
     8f2:	10076713          	or	a4,a4,256
     8f6:	00e79023          	sh	a4,0(a5)
	uint32_t status = I2C1->STAR1 | (I2C1->STAR2<<16);
     8fa:	40005737          	lui	a4,0x40005
	timeout = TIMEOUT_MAX;
     8fe:	6a068693          	add	a3,a3,1696 # 186a0 <main.c.256160c4+0x160cf>
	uint32_t status = I2C1->STAR1 | (I2C1->STAR2<<16);
     902:	40070713          	add	a4,a4,1024 # 40005400 <__global_pointer$+0x20004c00>
	while((!ssd1306_i2c_chk_evt(SSD1306_I2C_EVENT_MASTER_MODE_SELECT)) && (timeout--));
     906:	0605                	add	a2,a2,1 # 30001 <main.c.256160c4+0x2da30>
     908:	537d                	li	t1,-1
	uint32_t status = I2C1->STAR1 | (I2C1->STAR2<<16);
     90a:	01475283          	lhu	t0,20(a4)
     90e:	01875783          	lhu	a5,24(a4)
     912:	07c2                	sll	a5,a5,0x10
     914:	0057e7b3          	or	a5,a5,t0
	while((!ssd1306_i2c_chk_evt(SSD1306_I2C_EVENT_MASTER_MODE_SELECT)) && (timeout--));
     918:	8ff1                	and	a5,a5,a2
     91a:	f8c788e3          	beq	a5,a2,8aa <ssd1306_i2c_send.constprop.0.isra.0+0x9c>
     91e:	16fd                	add	a3,a3,-1
     920:	fe6695e3          	bne	a3,t1,90a <ssd1306_i2c_send.constprop.0.isra.0+0xfc>
		return ssd1306_i2c_error(1);
     924:	4505                	li	a0,1
     926:	b73d                	j	854 <ssd1306_i2c_send.constprop.0.isra.0+0x46>

00000928 <ssd1306_cmd>:
{
     928:	7179                	add	sp,sp,-48
	
	/* build command or data packets */
	if(cmd)
	{
		pkt[0] = 0;
		pkt[1] = *data;
     92a:	00a100a3          	sb	a0,1(sp)
	else
	{
		pkt[0] = 0x40;
		memcpy(&pkt[1], data, sz);
	}
	return ssd1306_i2c_send(SSD1306_I2C_ADDR, pkt, sz+1);
     92e:	4589                	li	a1,2
     930:	850a                	mv	a0,sp
     932:	d606                	sw	ra,44(sp)
		pkt[0] = 0;
     934:	00010023          	sb	zero,0(sp)
	return ssd1306_i2c_send(SSD1306_I2C_ADDR, pkt, sz+1);
     938:	3dd9                	jal	80e <ssd1306_i2c_send.constprop.0.isra.0>
}
     93a:	50b2                	lw	ra,44(sp)
     93c:	4501                	li	a0,0
     93e:	6145                	add	sp,sp,48
     940:	8082                	ret

00000942 <memset>:
     942:	962a                	add	a2,a2,a0
     944:	87aa                	mv	a5,a0
     946:	00c79363          	bne	a5,a2,94c <memset+0xa>
     94a:	8082                	ret
     94c:	00b78023          	sb	a1,0(a5)
     950:	0785                	add	a5,a5,1
     952:	bfd5                	j	946 <memset+0x4>

00000954 <ssd1306_setbuf.constprop.0>:
	memset(ssd1306_buffer, color ? 0xFF : 0x00, sizeof(ssd1306_buffer));
     954:	20000537          	lui	a0,0x20000
     958:	40000613          	li	a2,1024
     95c:	4581                	li	a1,0
     95e:	00050513          	mv	a0,a0
     962:	b7c5                	j	942 <memset>

00000964 <memcpy>:
     964:	4781                	li	a5,0
     966:	00f61363          	bne	a2,a5,96c <memcpy+0x8>
     96a:	8082                	ret
     96c:	00f58733          	add	a4,a1,a5
     970:	00074683          	lbu	a3,0(a4)
     974:	00f50733          	add	a4,a0,a5
     978:	0785                	add	a5,a5,1
     97a:	00d70023          	sb	a3,0(a4)
     97e:	b7e5                	j	966 <memcpy+0x2>

00000980 <ssd1306_refresh>:
{
     980:	7179                	add	sp,sp,-48
	ssd1306_cmd(SSD1306_COLUMNADDR);
     982:	02100513          	li	a0,33
{
     986:	d606                	sw	ra,44(sp)
     988:	d422                	sw	s0,40(sp)
     98a:	d226                	sw	s1,36(sp)
	ssd1306_cmd(SSD1306_COLUMNADDR);
     98c:	3f71                	jal	928 <ssd1306_cmd>
	ssd1306_cmd(SSD1306_OFFSET);   // Column start address (0 = reset)
     98e:	4501                	li	a0,0
     990:	3f61                	jal	928 <ssd1306_cmd>
	ssd1306_cmd(SSD1306_OFFSET+SSD1306_W-1); // Column end address (127 = reset)
     992:	07f00513          	li	a0,127
     996:	3f49                	jal	928 <ssd1306_cmd>
	ssd1306_cmd(SSD1306_PAGEADDR);
     998:	02200513          	li	a0,34
     99c:	3771                	jal	928 <ssd1306_cmd>
	ssd1306_cmd(0); // Page start address (0 = reset)
     99e:	4501                	li	a0,0
     9a0:	3761                	jal	928 <ssd1306_cmd>
	ssd1306_cmd(7); // Page end address
     9a2:	20000437          	lui	s0,0x20000
     9a6:	451d                	li	a0,7
     9a8:	00040413          	mv	s0,s0
     9ac:	3fb5                	jal	928 <ssd1306_cmd>
    for(i=0;i<sizeof(ssd1306_buffer);i+=SSD1306_PSZ)
     9ae:	40040493          	add	s1,s0,1024 # 20000400 <_ebss>
		pkt[0] = 0x40;
     9b2:	04000793          	li	a5,64
		memcpy(&pkt[1], data, sz);
     9b6:	85a2                	mv	a1,s0
     9b8:	02000613          	li	a2,32
     9bc:	00110513          	add	a0,sp,1
		pkt[0] = 0x40;
     9c0:	00f10023          	sb	a5,0(sp)
		memcpy(&pkt[1], data, sz);
     9c4:	3745                	jal	964 <memcpy>
	return ssd1306_i2c_send(SSD1306_I2C_ADDR, pkt, sz+1);
     9c6:	02100593          	li	a1,33
     9ca:	850a                	mv	a0,sp
     9cc:	02040413          	add	s0,s0,32
     9d0:	3d3d                	jal	80e <ssd1306_i2c_send.constprop.0.isra.0>
     9d2:	fe9410e3          	bne	s0,s1,9b2 <ssd1306_refresh+0x32>
}
     9d6:	50b2                	lw	ra,44(sp)
     9d8:	5422                	lw	s0,40(sp)
     9da:	5492                	lw	s1,36(sp)
     9dc:	6145                	add	sp,sp,48
     9de:	8082                	ret

000009e0 <SystemInit>:
     9e0:	400227b7          	lui	a5,0x40022
     9e4:	4705                	li	a4,1
     9e6:	c398                	sw	a4,0(a5)
     9e8:	400217b7          	lui	a5,0x40021
     9ec:	01080737          	lui	a4,0x1080
     9f0:	0007a223          	sw	zero,4(a5) # 40021004 <__global_pointer$+0x20020804>
     9f4:	08170713          	add	a4,a4,129 # 1080081 <main.c.256160c4+0x107dab0>
     9f8:	c398                	sw	a4,0(a5)
     9fa:	009f0737          	lui	a4,0x9f0
     9fe:	c798                	sw	a4,8(a5)
     a00:	40021737          	lui	a4,0x40021
     a04:	431c                	lw	a5,0(a4)
     a06:	00679693          	sll	a3,a5,0x6
     a0a:	fe06dde3          	bgez	a3,a04 <SystemInit+0x24>
     a0e:	435c                	lw	a5,4(a4)
     a10:	400216b7          	lui	a3,0x40021
     a14:	9bf1                	and	a5,a5,-4
     a16:	0027e793          	or	a5,a5,2
     a1a:	c35c                	sw	a5,4(a4)
     a1c:	4721                	li	a4,8
     a1e:	42dc                	lw	a5,4(a3)
     a20:	8bb1                	and	a5,a5,12
     a22:	fee79ee3          	bne	a5,a4,a1e <SystemInit+0x3e>
     a26:	e00007b7          	lui	a5,0xe0000
     a2a:	0f878793          	add	a5,a5,248 # e00000f8 <__global_pointer$+0xbffff8f8>
     a2e:	0007a023          	sw	zero,0(a5)
     a32:	e00007b7          	lui	a5,0xe0000
     a36:	0f478793          	add	a5,a5,244 # e00000f4 <__global_pointer$+0xbffff8f4>
     a3a:	08000713          	li	a4,128
     a3e:	c398                	sw	a4,0(a5)
     a40:	8082                	ret

00000a42 <main>:
};

typedef struct car_state car_state_data;

int main()
{
     a42:	f8410113          	add	sp,sp,-124
     a46:	dc86                	sw	ra,120(sp)
     a48:	daa2                	sw	s0,116(sp)
     a4a:	d8a6                	sw	s1,112(sp)
	// 48MHz internal clock
	SystemInit();
     a4c:	3f51                	jal	9e0 <SystemInit>
    GPIO_port_enable(GPIO_port_A);
     a4e:	400214b7          	lui	s1,0x40021
     a52:	4c9c                	lw	a5,24(s1)
    GPIO_pinMode(BZR_PIN, GPIO_pinMode_O_pushPull, GPIO_Speed_10MHz);
     a54:	f10006b7          	lui	a3,0xf1000
     a58:	16fd                	add	a3,a3,-1 # f0ffffff <__global_pointer$+0xd0fff7ff>
    GPIO_port_enable(GPIO_port_A);
     a5a:	0047e793          	or	a5,a5,4
     a5e:	cc9c                	sw	a5,24(s1)
    GPIO_port_enable(GPIO_port_D);
     a60:	4c9c                	lw	a5,24(s1)
    GPIO_pinMode(BZR_PIN, GPIO_pinMode_O_pushPull, GPIO_Speed_10MHz);
     a62:	40011437          	lui	s0,0x40011
    GPIO_pinMode(ROT_B_PIN, GPIO_pinMode_I_pullUp, GPIO_Speed_10MHz);
     a66:	6605                	lui	a2,0x1
    GPIO_port_enable(GPIO_port_D);
     a68:	0207e793          	or	a5,a5,32
     a6c:	cc9c                	sw	a5,24(s1)
    GPIO_port_enable(GPIO_port_C);
     a6e:	4c9c                	lw	a5,24(s1)
    GPIO_pinMode(ROT_B_PIN, GPIO_pinMode_I_pullUp, GPIO_Speed_10MHz);
     a70:	80060613          	add	a2,a2,-2048 # 800 <ssd1306_i2c_error.isra.0+0x10>

  init_gpio();

	Delay_Ms( 200 );
     a74:	00125537          	lui	a0,0x125
    GPIO_port_enable(GPIO_port_C);
     a78:	0107e793          	or	a5,a5,16
     a7c:	cc9c                	sw	a5,24(s1)
    GPIO_pinMode(BZR_PIN, GPIO_pinMode_O_pushPull, GPIO_Speed_10MHz);
     a7e:	400117b7          	lui	a5,0x40011
     a82:	40078793          	add	a5,a5,1024 # 40011400 <__global_pointer$+0x20010c00>
     a86:	4398                	lw	a4,0(a5)
	Delay_Ms( 200 );
     a88:	f8050513          	add	a0,a0,-128 # 124f80 <main.c.256160c4+0x1229af>
    GPIO_pinMode(BZR_PIN, GPIO_pinMode_O_pushPull, GPIO_Speed_10MHz);
     a8c:	8f75                	and	a4,a4,a3
     a8e:	c398                	sw	a4,0(a5)
     a90:	4398                	lw	a4,0(a5)
     a92:	010006b7          	lui	a3,0x1000
     a96:	8f55                	or	a4,a4,a3
     a98:	c398                	sw	a4,0(a5)
    GPIO_pinMode(BTN_PIN, GPIO_pinMode_I_pullUp, GPIO_Speed_10MHz);
     a9a:	4018                	lw	a4,0(s0)
     a9c:	fff106b7          	lui	a3,0xfff10
     aa0:	16fd                	add	a3,a3,-1 # fff0ffff <__global_pointer$+0xdff0f7ff>
     aa2:	8f75                	and	a4,a4,a3
     aa4:	c018                	sw	a4,0(s0)
     aa6:	4018                	lw	a4,0(s0)
     aa8:	000806b7          	lui	a3,0x80
     aac:	8f55                	or	a4,a4,a3
     aae:	c018                	sw	a4,0(s0)
     ab0:	4741                	li	a4,16
     ab2:	c818                	sw	a4,16(s0)
    GPIO_pinMode(ROT_A_PIN, GPIO_pinMode_I_pullUp, GPIO_Speed_10MHz);
     ab4:	4398                	lw	a4,0(a5)
     ab6:	ff1006b7          	lui	a3,0xff100
     aba:	16fd                	add	a3,a3,-1 # ff0fffff <__global_pointer$+0xdf0ff7ff>
     abc:	8f75                	and	a4,a4,a3
     abe:	c398                	sw	a4,0(a5)
     ac0:	4398                	lw	a4,0(a5)
     ac2:	008006b7          	lui	a3,0x800
     ac6:	8f55                	or	a4,a4,a3
     ac8:	c398                	sw	a4,0(a5)
     aca:	02000713          	li	a4,32
     ace:	cb98                	sw	a4,16(a5)
    GPIO_pinMode(ROT_B_PIN, GPIO_pinMode_I_pullUp, GPIO_Speed_10MHz);
     ad0:	400117b7          	lui	a5,0x40011
     ad4:	80078793          	add	a5,a5,-2048 # 40010800 <__global_pointer$+0x20010000>
     ad8:	4394                	lw	a3,0(a5)
     ada:	777d                	lui	a4,0xfffff
     adc:	0ff70713          	add	a4,a4,255 # fffff0ff <__global_pointer$+0xdfffe8ff>
     ae0:	c03a                	sw	a4,0(sp)
     ae2:	8ef9                	and	a3,a3,a4
     ae4:	c394                	sw	a3,0(a5)
     ae6:	4394                	lw	a3,0(a5)
     ae8:	8ed1                	or	a3,a3,a2
     aea:	c394                	sw	a3,0(a5)
     aec:	4691                	li	a3,4
     aee:	cb94                	sw	a3,16(a5)
	Delay_Ms( 200 );
     af0:	ee4ff0ef          	jal	1d4 <DelaySysTick>
 * init I2C and GPIO
 */
uint8_t ssd1306_i2c_init(void)
{
	// Enable GPIOC and I2C
	RCC->APB2PCENR |= RCC_APB2Periph_GPIOC;
     af4:	4c9c                	lw	a5,24(s1)
	RCC->APB1PCENR |= RCC_APB1Periph_I2C1;
     af6:	002006b7          	lui	a3,0x200
	// PC1 is SDA, 10MHz Output, alt func, open-drain
	GPIOC->CFGLR &= ~(0xf<<(4*1));
	GPIOC->CFGLR |= (GPIO_Speed_10MHz | GPIO_CNF_OUT_OD_AF)<<(4*1);
	
	// PC2 is SCL, 10MHz Output, alt func, open-drain
	GPIOC->CFGLR &= ~(0xf<<(4*2));
     afa:	4702                	lw	a4,0(sp)
	RCC->APB2PCENR |= RCC_APB2Periph_GPIOC;
     afc:	0107e793          	or	a5,a5,16
     b00:	cc9c                	sw	a5,24(s1)
	RCC->APB1PCENR |= RCC_APB1Periph_I2C1;
     b02:	4cdc                	lw	a5,28(s1)
     b04:	8fd5                	or	a5,a5,a3
     b06:	ccdc                	sw	a5,28(s1)
	GPIOC->CFGLR &= ~(0xf<<(4*1));
     b08:	401c                	lw	a5,0(s0)
     b0a:	f0f7f793          	and	a5,a5,-241
     b0e:	c01c                	sw	a5,0(s0)
	GPIOC->CFGLR |= (GPIO_Speed_10MHz | GPIO_CNF_OUT_OD_AF)<<(4*1);
     b10:	401c                	lw	a5,0(s0)
     b12:	0d07e793          	or	a5,a5,208
     b16:	c01c                	sw	a5,0(s0)
	GPIOC->CFGLR &= ~(0xf<<(4*2));
     b18:	401c                	lw	a5,0(s0)
     b1a:	8ff9                	and	a5,a5,a4
     b1c:	c01c                	sw	a5,0(s0)
	GPIOC->CFGLR |= (GPIO_Speed_10MHz | GPIO_CNF_OUT_OD_AF)<<(4*2);
     b1e:	401c                	lw	a5,0(s0)
     b20:	6705                	lui	a4,0x1
     b22:	d0070713          	add	a4,a4,-768 # d00 <main+0x2be>
     b26:	8fd9                	or	a5,a5,a4
     b28:	c01c                	sw	a5,0(s0)
{
	// pulse reset
	ssd1306_rst();
	
	// initialize OLED
	uint8_t *cmd_list = (uint8_t *)ssd1306_init_array;
     b2a:	6405                	lui	s0,0x1
	GPIOC->CFGLR |= (GPIO_Speed_10MHz | GPIO_CNF_OUT_PP)<<(4*4);
	GPIOC->BSHR = (1<<(16+4));
#endif

	// load I2C regs
	ssd1306_i2c_setup();
     b2c:	f7eff0ef          	jal	2aa <ssd1306_i2c_setup>
     b30:	ebc40413          	add	s0,s0,-324 # ebc <ssd1306_init_array>
	while(*cmd_list != SSD1306_TERMINATE_CMDS)
     b34:	00044503          	lbu	a0,0(s0)
     b38:	0ff00793          	li	a5,255
     b3c:	00f51563          	bne	a0,a5,b46 <main+0x104>
		if(ssd1306_cmd(*cmd_list++))
			return 1;
	}
	
	// clear display
	ssd1306_setbuf(0);
     b40:	3d11                	jal	954 <ssd1306_setbuf.constprop.0>
	ssd1306_refresh();
     b42:	3d3d                	jal	980 <ssd1306_refresh>
     b44:	a021                	j	b4c <main+0x10a>
		if(ssd1306_cmd(*cmd_list++))
     b46:	0405                	add	s0,s0,1
     b48:	33c5                	jal	928 <ssd1306_cmd>
     b4a:	d56d                	beqz	a0,b34 <main+0xf2>
    ssd1306_setbuf(0);
     b4c:	3521                	jal	954 <ssd1306_setbuf.constprop.0>
    ssd1306_drawImage(0, 0, movoid_title, 128, 64, 0);
     b4e:	6605                	lui	a2,0x1
     b50:	04000713          	li	a4,64
     b54:	08000693          	li	a3,128
     b58:	ed860613          	add	a2,a2,-296 # ed8 <movoid_title>
     b5c:	4581                	li	a1,0
     b5e:	4501                	li	a0,0
     b60:	825ff0ef          	jal	384 <ssd1306_drawImage.constprop.0>
    ssd1306_refresh();
     b64:	3d31                	jal	980 <ssd1306_refresh>
	  Delay_Ms(2000);
     b66:	00b72537          	lui	a0,0xb72
     b6a:	b0050513          	add	a0,a0,-1280 # b71b00 <main.c.256160c4+0xb6f52f>
     b6e:	e66ff0ef          	jal	1d4 <DelaySysTick>
      int flip_c = 0;
      bool flip_flag = false;

      bool button_state = false;

      uint8_t rot_a_pre_state = GPIO_digitalRead(ROT_A_PIN);
     b72:	400117b7          	lui	a5,0x40011
     b76:	40078793          	add	a5,a5,1024 # 40011400 <__global_pointer$+0x20010c00>
     b7a:	c63e                	sw	a5,12(sp)
     b7c:	47b2                	lw	a5,12(sp)
      uint8_t rot_b_pre_state = GPIO_digitalRead(ROT_B_PIN);
     b7e:	40011737          	lui	a4,0x40011

      car_state_data car_s[] = {
     b82:	6585                	lui	a1,0x1
      uint8_t rot_a_pre_state = GPIO_digitalRead(ROT_A_PIN);
     b84:	479c                	lw	a5,8(a5)
      uint8_t rot_b_pre_state = GPIO_digitalRead(ROT_B_PIN);
     b86:	80070713          	add	a4,a4,-2048 # 40010800 <__global_pointer$+0x20010000>
      car_state_data car_s[] = {
     b8a:	04000613          	li	a2,64
      uint8_t rot_a_pre_state = GPIO_digitalRead(ROT_A_PIN);
     b8e:	8395                	srl	a5,a5,0x5
     b90:	8b85                	and	a5,a5,1
      car_state_data car_s[] = {
     b92:	de458593          	add	a1,a1,-540 # de4 <main+0x3a2>
     b96:	1808                	add	a0,sp,48
      uint8_t rot_b_pre_state = GPIO_digitalRead(ROT_B_PIN);
     b98:	4704                	lw	s1,8(a4)
      uint8_t rot_a_pre_state = GPIO_digitalRead(ROT_A_PIN);
     b9a:	c43e                	sw	a5,8(sp)
      car_state_data car_s[] = {
     b9c:	33e1                	jal	964 <memcpy>
      int newt_x = 100;
     b9e:	06400793          	li	a5,100
     ba2:	c03e                	sw	a5,0(sp)
     ba4:	47a2                	lw	a5,8(sp)
      uint8_t rot_b_pre_state = GPIO_digitalRead(ROT_B_PIN);
     ba6:	8089                	srl	s1,s1,0x2
     ba8:	8885                	and	s1,s1,1
      bool button_state = false;
     baa:	cc02                	sw	zero,24(sp)
      bool flip_flag = false;
     bac:	c802                	sw	zero,16(sp)
      int flip_c = 0;
     bae:	c202                	sw	zero,4(sp)
      int newt_y = 20;
     bb0:	4451                	li	s0,20

      bool run_flag = true;

      while (run_flag) {

        uint8_t button_is_pressed = !GPIO_digitalRead(BTN_PIN);
     bb2:	40011737          	lui	a4,0x40011
     bb6:	4718                	lw	a4,8(a4)
     bb8:	46e2                	lw	a3,24(sp)
     bba:	8b41                	and	a4,a4,16
     bbc:	00173613          	seqz	a2,a4
     bc0:	cc32                	sw	a2,24(sp)

        // buzzer on!
        if (button_is_pressed)
     bc2:	eb15                	bnez	a4,bf6 <main+0x1b4>
        {
            GPIO_digitalWrite(BZR_PIN, high);
     bc4:	46b2                	lw	a3,12(sp)
     bc6:	04000713          	li	a4,64
     bca:	ca98                	sw	a4,16(a3)
          newt_x -= newt_step;
        }
        button_state = button_is_pressed;

        // get rotaly-encoder value
        uint8_t rot_a_state = GPIO_digitalRead(ROT_A_PIN);
     bcc:	4732                	lw	a4,12(sp)
     bce:	4718                	lw	a4,8(a4)
     bd0:	8315                	srl	a4,a4,0x5
     bd2:	8b05                	and	a4,a4,1
     bd4:	ca3a                	sw	a4,20(sp)
        uint8_t rot_b_state = GPIO_digitalRead(ROT_B_PIN);
     bd6:	40011737          	lui	a4,0x40011
     bda:	80070713          	add	a4,a4,-2048 # 40010800 <__global_pointer$+0x20010000>
     bde:	4718                	lw	a4,8(a4)
     be0:	8309                	srl	a4,a4,0x2
     be2:	8b05                	and	a4,a4,1
     be4:	c43a                	sw	a4,8(sp)

        if (rot_a_state && rot_b_state) {
     be6:	4752                	lw	a4,20(sp)
     be8:	c31d                	beqz	a4,c0e <main+0x1cc>
     bea:	4722                	lw	a4,8(sp)
     bec:	c715                	beqz	a4,c18 <main+0x1d6>

          if (!rot_a_pre_state && rot_b_pre_state) {
     bee:	ef89                	bnez	a5,c08 <main+0x1c6>
     bf0:	c485                	beqz	s1,c18 <main+0x1d6>
        if (!rot_a_state && !rot_b_state) {

          if (!rot_a_pre_state && rot_b_pre_state) {
            newt_y -= 4;
          } else if (rot_a_pre_state && !rot_b_pre_state) {
            newt_y += 4;
     bf2:	0411                	add	s0,s0,4
     bf4:	a015                	j	c18 <main+0x1d6>
            GPIO_digitalWrite(BZR_PIN, low);
     bf6:	4632                	lw	a2,12(sp)
     bf8:	00400737          	lui	a4,0x400
     bfc:	ca18                	sw	a4,16(a2)
        if (button_state && !button_is_pressed){
     bfe:	d6f9                	beqz	a3,bcc <main+0x18a>
          newt_x -= newt_step;
     c00:	4702                	lw	a4,0(sp)
     c02:	171d                	add	a4,a4,-25 # 3fffe7 <main.c.256160c4+0x3fda16>
     c04:	c03a                	sw	a4,0(sp)
     c06:	b7d9                	j	bcc <main+0x18a>
          } else if (rot_a_pre_state && !rot_b_pre_state) {
     c08:	e881                	bnez	s1,c18 <main+0x1d6>
            newt_y -= 4;
     c0a:	1471                	add	s0,s0,-4
     c0c:	a031                	j	c18 <main+0x1d6>
        if (!rot_a_state && !rot_b_state) {
     c0e:	4722                	lw	a4,8(sp)
     c10:	e701                	bnez	a4,c18 <main+0x1d6>
          if (!rot_a_pre_state && rot_b_pre_state) {
     c12:	1a079363          	bnez	a5,db8 <main+0x376>
     c16:	f8f5                	bnez	s1,c0a <main+0x1c8>

        rot_a_pre_state = rot_a_state;
        rot_b_pre_state = rot_b_state;

        // turn aroud
        if (newt_x < 0) {
     c18:	4782                	lw	a5,0(sp)
     c1a:	0007d563          	bgez	a5,c24 <main+0x1e2>
          newt_x = 100;
     c1e:	06400793          	li	a5,100
     c22:	c03e                	sw	a5,0(sp)
        }
        if (newt_y < 0) {
          newt_y = 0;
        } 
        else if (newt_y > 40) {
     c24:	02800793          	li	a5,40
     c28:	1887db63          	bge	a5,s0,dbe <main+0x37c>
     c2c:	02800413          	li	s0,40
          newt_y = 40;
        }

        // clear buffer for next mode
        ssd1306_setbuf(0);
     c30:	3315                	jal	954 <ssd1306_setbuf.constprop.0>

        if (rot_a_state) {
     c32:	47d2                	lw	a5,20(sp)
          ssd1306_fillRect(0, 0, 10, 32, 1);
     c34:	4585                	li	a1,1
        if (rot_a_state) {
     c36:	e391                	bnez	a5,c3a <main+0x1f8>
        } else {
          ssd1306_fillRect(0, 0, 10, 32, 0);
     c38:	4581                	li	a1,0
     c3a:	4501                	li	a0,0
     c3c:	f04ff0ef          	jal	340 <ssd1306_fillRect.constprop.0>
        }
        
        if (rot_b_state) {
     c40:	47a2                	lw	a5,8(sp)
          ssd1306_fillRect(0, 32, 10, 32, 1);
     c42:	4585                	li	a1,1
        if (rot_b_state) {
     c44:	e391                	bnez	a5,c48 <main+0x206>
        } else {
          ssd1306_fillRect(0, 32, 10, 32, 0);
     c46:	4581                	li	a1,0
     c48:	02000513          	li	a0,32
     c4c:	ef4ff0ef          	jal	340 <ssd1306_fillRect.constprop.0>
        }


        flip_c ++;
     c50:	4792                	lw	a5,4(sp)
     c52:	0785                	add	a5,a5,1
     c54:	c23e                	sw	a5,4(sp)

        if (flip_c > 100) {
     c56:	4712                	lw	a4,4(sp)
     c58:	06500793          	li	a5,101
     c5c:	00f71763          	bne	a4,a5,c6a <main+0x228>
          flip_flag = !flip_flag;
     c60:	47c2                	lw	a5,16(sp)
          flip_c = 0;
     c62:	c202                	sw	zero,4(sp)
          flip_flag = !flip_flag;
     c64:	0017c793          	xor	a5,a5,1
     c68:	c83e                	sw	a5,16(sp)
        }

        if(flip_flag){
     c6a:	47c2                	lw	a5,16(sp)
          ssd1306_drawImage(newt_x, newt_y, newt_left, 24, 24, 0);
     c6c:	00014503          	lbu	a0,0(sp)
     c70:	0ff47593          	zext.b	a1,s0
     c74:	4761                	li	a4,24
     c76:	46e1                	li	a3,24
        if(flip_flag){
     c78:	14078763          	beqz	a5,dc6 <main+0x384>
          ssd1306_drawImage(newt_x, newt_y, newt_left, 24, 24, 0);
     c7c:	6609                	lui	a2,0x2
     c7e:	b6860613          	add	a2,a2,-1176 # 1b68 <newt_left>
        } else {
          ssd1306_drawImage(newt_x, newt_y, newt_right, 24, 24, 0);
     c82:	f02ff0ef          	jal	384 <ssd1306_drawImage.constprop.0>

          // 
          ssd1306_drawImage(car_s[i].car_x, car_s[i].car_y, car, 24, 24, 0);

          // 
          if (flip_c % 25 == 0) {
     c86:	4512                	lw	a0,4(sp)
     c88:	45e5                	li	a1,25
     c8a:	1804                	add	s1,sp,48
     c8c:	c84ff0ef          	jal	110 <__modsi3>
     c90:	83aa                	mv	t2,a0
          ssd1306_drawImage(car_s[i].car_x, car_s[i].car_y, car, 24, 24, 0);
     c92:	6289                	lui	t0,0x2
     c94:	0004a303          	lw	t1,0(s1) # 40021000 <__global_pointer$+0x20020800>
     c98:	40dc                	lw	a5,4(s1)
     c9a:	ad828613          	add	a2,t0,-1320 # 1ad8 <car>
     c9e:	0ff37513          	zext.b	a0,t1
     ca2:	4761                	li	a4,24
     ca4:	46e1                	li	a3,24
     ca6:	0ff7f593          	zext.b	a1,a5
     caa:	d21e                	sw	t2,36(sp)
     cac:	ce1a                	sw	t1,28(sp)
     cae:	d03e                	sw	a5,32(sp)
     cb0:	ed4ff0ef          	jal	384 <ssd1306_drawImage.constprop.0>
          if (flip_c % 25 == 0) {
     cb4:	5392                	lw	t2,36(sp)
     cb6:	4372                	lw	t1,28(sp)
     cb8:	6289                	lui	t0,0x2
     cba:	00039a63          	bnez	t2,cce <main+0x28c>
            if (car_s[i].dest) {
     cbe:	00c4c683          	lbu	a3,12(s1)
              car_s[i].car_y += car_s[i].car_step;
     cc2:	4498                	lw	a4,8(s1)
            if (car_s[i].dest) {
     cc4:	5782                	lw	a5,32(sp)
     cc6:	10068463          	beqz	a3,dce <main+0x38c>
              car_s[i].car_y += car_s[i].car_step;
     cca:	973e                	add	a4,a4,a5
     ccc:	c0d8                	sw	a4,4(s1)
              car_s[i].car_y -= car_s[i].car_step;
            }
          }

          // 
          if (car_s[i].car_y > 64) {
     cce:	40dc                	lw	a5,4(s1)
     cd0:	04000713          	li	a4,64
     cd4:	10f74063          	blt	a4,a5,dd4 <main+0x392>
            car_s[i].car_y = 0;
          }
          if (car_s[i].car_y < 0) {
     cd8:	0007d463          	bgez	a5,ce0 <main+0x29e>
            car_s[i].car_y = 64;
     cdc:	04000793          	li	a5,64
          }

          // 
          if (car_s[i].car_x == newt_x) {
     ce0:	4702                	lw	a4,0(sp)
     ce2:	c0dc                	sw	a5,4(s1)
     ce4:	0ee31a63          	bne	t1,a4,dd8 <main+0x396>
            if ((car_s[i].car_y + 6) <= newt_y && (car_s[i].car_y + 18) >= newt_y ) {
     ce8:	00578713          	add	a4,a5,5
     cec:	0e875663          	bge	a4,s0,dd8 <main+0x396>
     cf0:	07c9                	add	a5,a5,18
     cf2:	0e87c363          	blt	a5,s0,dd8 <main+0x396>
    ssd1306_setbuf(0);
     cf6:	39b9                	jal	954 <ssd1306_setbuf.constprop.0>
	while((c=*str++))
     cf8:	6305                	lui	t1,0x1
     cfa:	4701                	li	a4,0
     cfc:	e5430313          	add	t1,t1,-428 # e54 <main+0x412>
     d00:	006707b3          	add	a5,a4,t1
     d04:	0007c483          	lbu	s1,0(a5)
     d08:	00371293          	sll	t0,a4,0x3
     d0c:	0ff2f293          	zext.b	t0,t0
     d10:	c0bd                	beqz	s1,d76 <main+0x334>
     d12:	6785                	lui	a5,0x1
     d14:	048e                	sll	s1,s1,0x3
     d16:	2d878793          	add	a5,a5,728 # 12d8 <fontdata>
     d1a:	94be                	add	s1,s1,a5
     d1c:	45c1                	li	a1,16
        d = fontdata[(chr << 3) + i];
     d1e:	0004c683          	lbu	a3,0(s1)
        for (j = 0; j < 8; j++)
     d22:	4781                	li	a5,0
                    ssd1306_drawPixel(x + (j * font_scale) + k, y + (i * font_scale) + l, col);
     d24:	00f28533          	add	a0,t0,a5
     d28:	0076d613          	srl	a2,a3,0x7
     d2c:	0ff57513          	zext.b	a0,a0
     d30:	d63a                	sw	a4,44(sp)
     d32:	d43e                	sw	a5,40(sp)
     d34:	d216                	sw	t0,36(sp)
     d36:	d036                	sw	a3,32(sp)
     d38:	ce2e                	sw	a1,28(sp)
     d3a:	dc4ff0ef          	jal	2fe <ssd1306_drawPixel>
        for (j = 0; j < 8; j++)
     d3e:	57a2                	lw	a5,40(sp)
            d <<= 1;
     d40:	5682                	lw	a3,32(sp)
        for (j = 0; j < 8; j++)
     d42:	6505                	lui	a0,0x1
     d44:	0785                	add	a5,a5,1
     d46:	07c2                	sll	a5,a5,0x10
            d <<= 1;
     d48:	0686                	sll	a3,a3,0x1
        for (j = 0; j < 8; j++)
     d4a:	83c1                	srl	a5,a5,0x10
     d4c:	4621                	li	a2,8
     d4e:	45f2                	lw	a1,28(sp)
     d50:	5292                	lw	t0,36(sp)
     d52:	5732                	lw	a4,44(sp)
            d <<= 1;
     d54:	0ff6f693          	zext.b	a3,a3
        for (j = 0; j < 8; j++)
     d58:	e5450313          	add	t1,a0,-428 # e54 <main+0x412>
     d5c:	fcc794e3          	bne	a5,a2,d24 <main+0x2e2>
    for (i = 0; i < 8; i++)
     d60:	0585                	add	a1,a1,1
     d62:	0ff5f593          	zext.b	a1,a1
     d66:	47e1                	li	a5,24
     d68:	0485                	add	s1,s1,1
     d6a:	faf59ae3          	bne	a1,a5,d1e <main+0x2dc>
		if(x>128 - 8 * font_size)
     d6e:	0705                	add	a4,a4,1
     d70:	47c1                	li	a5,16
     d72:	f8f717e3          	bne	a4,a5,d00 <main+0x2be>
    ssd1306_refresh();
     d76:	3129                	jal	980 <ssd1306_refresh>
	  Delay_Ms(2000);
     d78:	00b72537          	lui	a0,0xb72
     d7c:	b0050513          	add	a0,a0,-1280 # b71b00 <main.c.256160c4+0xb6f52f>
     d80:	c54ff0ef          	jal	1d4 <DelaySysTick>
              game_over();
              run_flag = false;
     d84:	4481                	li	s1,0
	for(x=x0;x<=x1;x++)
     d86:	4781                	li	a5,0
			ssd1306_drawPixel(y, x, color);
     d88:	0ff7f593          	zext.b	a1,a5
     d8c:	4605                	li	a2,1
     d8e:	4529                	li	a0,10
     d90:	ce3e                	sw	a5,28(sp)
     d92:	d6cff0ef          	jal	2fe <ssd1306_drawPixel>
     d96:	47f2                	lw	a5,28(sp)
	for(x=x0;x<=x1;x++)
     d98:	04100713          	li	a4,65
     d9c:	0785                	add	a5,a5,1
     d9e:	01079693          	sll	a3,a5,0x10
     da2:	82c1                	srl	a3,a3,0x10
     da4:	07c2                	sll	a5,a5,0x10
     da6:	87c1                	sra	a5,a5,0x10
     da8:	fee690e3          	bne	a3,a4,d88 <main+0x346>
          }
        }
        
        ssd1306_drawLine(10, 0, 10, SSD1306_H, 1);

        ssd1306_refresh();
     dac:	3ed1                	jal	980 <ssd1306_refresh>
      while (run_flag) {
     dae:	dc0487e3          	beqz	s1,b7c <main+0x13a>
     db2:	44a2                	lw	s1,8(sp)
     db4:	47d2                	lw	a5,20(sp)
     db6:	bbf5                	j	bb2 <main+0x170>
          } else if (rot_a_pre_state && !rot_b_pre_state) {
     db8:	e60490e3          	bnez	s1,c18 <main+0x1d6>
     dbc:	bd1d                	j	bf2 <main+0x1b0>
     dbe:	e60459e3          	bgez	s0,c30 <main+0x1ee>
     dc2:	4401                	li	s0,0
     dc4:	b5b5                	j	c30 <main+0x1ee>
          ssd1306_drawImage(newt_x, newt_y, newt_right, 24, 24, 0);
     dc6:	6609                	lui	a2,0x2
     dc8:	b2060613          	add	a2,a2,-1248 # 1b20 <newt_right>
     dcc:	bd5d                	j	c82 <main+0x240>
              car_s[i].car_y -= car_s[i].car_step;
     dce:	8f99                	sub	a5,a5,a4
     dd0:	c0dc                	sw	a5,4(s1)
     dd2:	bdf5                	j	cce <main+0x28c>
            car_s[i].car_y = 64;
     dd4:	4781                	li	a5,0
     dd6:	b729                	j	ce0 <main+0x29e>
        for (int i = 0; i < 4; i++){
     dd8:	04c1                	add	s1,s1,16
     dda:	189c                	add	a5,sp,112
     ddc:	eaf49ce3          	bne	s1,a5,c94 <main+0x252>
     de0:	4485                	li	s1,1
     de2:	b755                	j	d86 <main+0x344>
     de4:	0000004b          	.insn	4, 0x004b
     de8:	000a                	c.slli	zero,0x2
     dea:	0000                	unimp
     dec:	0002                	c.slli64	zero
     dee:	0000                	unimp
     df0:	0001                	nop
     df2:	0000                	unimp
     df4:	0032                	c.slli	zero,0xc
     df6:	0000                	unimp
     df8:	0032                	c.slli	zero,0xc
     dfa:	0000                	unimp
     dfc:	0002                	c.slli64	zero
     dfe:	0000                	unimp
     e00:	0000                	unimp
     e02:	0000                	unimp
     e04:	0019                	c.nop	6
     e06:	0000                	unimp
     e08:	0014                	.insn	2, 0x0014
     e0a:	0000                	unimp
     e0c:	0004                	.insn	2, 0x0004
     e0e:	0000                	unimp
     e10:	0001                	nop
     e12:	0000                	unimp
     e14:	0000                	unimp
     e16:	0000                	unimp
     e18:	0014                	.insn	2, 0x0014
     e1a:	0000                	unimp
     e1c:	0002                	c.slli64	zero
     e1e:	0000                	unimp
     e20:	0000                	unimp
     e22:	0000                	unimp
     e24:	31647373          	csrrc	t1,0x316,8
     e28:	5f363033          	.insn	4, 0x5f363033
     e2c:	3269                	jal	7b6 <mini_vpprintf+0x1a0>
     e2e:	72655f63          	bge	a0,t1,156c <fontdata+0x294>
     e32:	6f72                	.insn	2, 0x6f72
     e34:	2072                	.insn	2, 0x2072
     e36:	202d                	jal	e60 <main+0x41e>
     e38:	6974                	.insn	2, 0x6974
     e3a:	656d                	lui	a0,0x1b
     e3c:	2074756f          	jal	a0,48842 <main.c.256160c4+0x46271>
     e40:	74696177          	.insn	4, 0x74696177
     e44:	6e69                	lui	t3,0x1a
     e46:	6f662067          	.insn	4, 0x6f662067
     e4a:	2072                	.insn	2, 0x2072
     e4c:	7325                	lui	t1,0xfffe9
     e4e:	0d0a                	sll	s10,s10,0x2
     e50:	0000                	unimp
     e52:	0000                	unimp
     e54:	454d4147          	.insn	4, 0x454d4147
     e58:	4f20                	lw	s0,88(a4)
     e5a:	4556                	lw	a0,84(sp)
     e5c:	0052                	c.slli	zero,0x14
     e5e:	0000                	unimp
     e60:	6f6e                	.insn	2, 0x6f6e
     e62:	2074                	.insn	2, 0x2074
     e64:	7562                	.insn	2, 0x7562
     e66:	00007973          	csrrc	s2,ustatus,0
     e6a:	0000                	unimp
     e6c:	616d                	add	sp,sp,240
     e6e:	72657473          	csrrc	s0,mhpmevent6h,10
     e72:	6d20                	.insn	2, 0x6d20
     e74:	0065646f          	jal	s0,56e7a <main.c.256160c4+0x548a9>
     e78:	7274                	.insn	2, 0x7274
     e7a:	6e61                	lui	t3,0x18
     e7c:	74696d73          	csrrs	s10,0x746,18
     e80:	6d20                	.insn	2, 0x6d20
     e82:	0065646f          	jal	s0,56e88 <main.c.256160c4+0x548b7>
     e86:	0000                	unimp
     e88:	7874                	.insn	2, 0x7874
     e8a:	6520                	.insn	2, 0x6520
     e8c:	706d                	c.lui	zero,0xffffb
     e8e:	7974                	.insn	2, 0x7974
     e90:	0000                	unimp
     e92:	0000                	unimp
     e94:	7274                	.insn	2, 0x7274
     e96:	6e61                	lui	t3,0x18
     e98:	74696d73          	csrrs	s10,0x746,18
     e9c:	6320                	.insn	2, 0x6320
     e9e:	6c706d6f          	jal	s10,7d64 <main.c.256160c4+0x5793>
     ea2:	7465                	lui	s0,0xffff9
     ea4:	0065                	c.nop	25
	...

00000ea8 <errstr>:
     ea8:	0e60 0000 0e6c 0000 0e78 0000 0e88 0000     `...l...x.......
     eb8:	0e94 0000                                   ....

00000ebc <ssd1306_init_array>:
     ebc:	d5ae a880 d33f 4000 148d 0020 c8a1 12da     ....?..@.. .....
     ecc:	8f81 f1d9 40db a6a4 ffaf 0000               .....@......

00000ed8 <movoid_title>:
     ed8:	ffff ffff ffff ffff ffff ffff ffff ffff     ................
     ee8:	ffff ffff ffff ffff ffff ffff ffff ffff     ................
     ef8:	ffff ffff ffff ffff ffff ffff ffff ffff     ................
     f08:	ffff ffff ffff ffff ffff ffff ffff ffff     ................
     f18:	ffff ffff ffff ffff ffff ffff ffff ffff     ................
     f28:	ffff ffff ffff ffff ffff ffff ffff ffff     ................
     f38:	ffff ffff ffff ffff ffff ffff ffff ffff     ................
     f48:	ffff ffff ffff ffff ffff ffff ffff ffff     ................
     f58:	ffff ffff ffff ffff ffff ffff ffff ffff     ................
     f68:	ffff ffff ffff ffff ffff ffff ffff ffff     ................
     f78:	ffff ffff ffff ffff ffff ffff ffff ffff     ................
     f88:	ffff ffff ffff ffff ffff ffff ffff ffff     ................
     f98:	ffff ffff ffff ffff ffff ffff ffff ffff     ................
     fa8:	ffff ffff ffff ffff ffff ffff ffff ffff     ................
     fb8:	ffff ffff ffff ffff ffff ffff ffff ffff     ................
     fc8:	ffff ffff ffff ffff ffff ffff ffff ffff     ................
     fd8:	ffff ffff ffff ffff ffff ffff ffff ffff     ................
     fe8:	ffff ffff ffff ffff ffff ffff ffff ffff     ................
     ff8:	f8ff ff7f ffff ffff ffff ffff ffff ffff     ................
    1008:	f8ff ff7f ffff ffff ffff ffff ffff ffff     ................
    1018:	f8ff ff3f ffff ffff ffff ffff ffff ffff     ..?.............
    1028:	f8ff fe3f ff0f ffff ffff f0ff e0ff ffff     ..?.............
    1038:	f8ff fe3f ff0f ffff ffff f0ff e07f ffff     ..?.............
    1048:	fcff fe3f ff0f ffff ffff f0ff c03f ffff     ..?.........?...
    1058:	fcff fe3f ff0f ffff ffff f0ff c03f ffff     ..?.........?...
    1068:	fcff ff3f ffff ffff ffff f0ff c01f ffff     ..?.............
    1078:	fcff ff3f ffff ffff ffff f0ff 901f ffff     ..?.............
    1088:	fcff ff3f ffff ffff ffff f0ff 904f ffff     ..?.........O...
    1098:	fcff 0f00 800f 8003 60f0 f800 904f ffff     .........`..O...
    10a8:	fcff 0f1e 8707 83c3 60f0 78f0 3067 ff7f     .........`.xg0..
    10b8:	fcff 0f1f 8707 c3c3 e0f0 78f0 3067 ff7f     ...........xg0..
    10c8:	feff 0f1f 8787 c1c3 e0f0 78f8 3073 ff7f     ...........xs0..
    10d8:	feff 0f1f 8387 c1c1 f0f0 78f8 707b ff7f     ...........x{p..
    10e8:	feff 0f1f 8387 e1c1 f0f0 78f8 7838 ff7f     ...........x8x..
    10f8:	feff 071f 8387 e0e1 f0f0 78f8 783c ff7f     ...........x<x..
    1108:	feff 071f c387 f0e1 f0f0 78f8 f83c ff7f     ...........x<...
    1118:	feff 071f c387 f0e1 f0e0 78f8 f83f ff7f     ...........x?...
    1128:	feff 870f c383 f0e1 f060 38f8 f83f ff3f     ........`..8?.?.
    1138:	feff 870f c383 f8e1 f061 3c78 f83f ff3f     ........a.x<?.?.
    1148:	feff 870f c3c3 f8e1 f061 3c7c f83f ff3f     ........a.|<?.?.
    1158:	ffff 870f c3c3 f8e0 f821 3c7c f83f ff3f     ........!.|<?.?.
    1168:	ffff 870f c1c3 fce0 f821 3c7c f81f ff3f     ........!.|<..?.
    1178:	ffff 0300 c0c3 fc00 f801 3c00 fc1f ff3f     ...........<..?.
    1188:	ffff 0700 e0c3 fe00 f803 3c00 fc3f ff3f     ...........<?.?.
    1198:	ffff ffff ffff ffff ffff ffff ffff ffff     ................
    11a8:	ffff ffff ffff ffff ffff ffff ffff ffff     ................
    11b8:	ffff ffff ffff ffff ffff ffff ffff ffff     ................
    11c8:	ffff ffff ffff ffff ffff ffff ffff ffff     ................
    11d8:	ffff ffff ffff ffff ffff ffff ffff ffff     ................
    11e8:	ffff ffff ffff ffff ffff ffff ffff ffff     ................
    11f8:	ffff ffff ffff ffff ffff ffff ffff ffff     ................
    1208:	ffff ffff ffff ffff ffff ffff ffff ffff     ................
    1218:	ffff ffff ffff ffff ffff ffff ffff ffff     ................
    1228:	ffff ffff ffff ffff ffff ffff ffff ffff     ................
    1238:	ffff ffff ffff ffff ffff ffff ffff ffff     ................
    1248:	ffff ffff ffff ffff ffff ffff ffff ffff     ................
    1258:	ffff ffff ffff ffff ffff ffff ffff ffff     ................
    1268:	ffff ffff ffff ffff ffff ffff ffff ffff     ................
    1278:	ffff ffff ffff ffff ffff ffff ffff ffff     ................
    1288:	ffff ffff ffff ffff ffff ffff ffff ffff     ................
    1298:	ffff ffff ffff ffff ffff ffff ffff ffff     ................
    12a8:	ffff ffff ffff ffff ffff ffff ffff ffff     ................
    12b8:	ffff ffff ffff ffff ffff ffff ffff ffff     ................
    12c8:	ffff ffff ffff ffff ffff ffff ffff ffff     ................

000012d8 <fontdata>:
	...
    12e0:	817e 81a5 99bd 7e81 ff7e ffdb e7c3 7eff     ~......~~......~
    12f0:	fe6c fefe 387c 0010 3810 fe7c 387c 0010     l...|8...8|.|8..
    1300:	7c38 fe38 d6fe 3810 3810 fe7c 7cfe 3810     8|8....8.8|..|.8
    1310:	0000 3c18 183c 0000 ffff c3e7 e7c3 ffff     ...<<...........
    1320:	3c00 4266 6642 003c c3ff bd99 99bd ffc3     .<fBBf<.........
    1330:	070f 7d0f cccc 78cc 663c 6666 183c 187e     ...}...x<fff<.~.
    1340:	333f 303f 7030 e0f0 637f 637f 6763 c0e6     ?3?00p...c.ccg..
    1350:	db18 e73c 3ce7 18db e080 fef8 e0f8 0080     ..<..<..........
    1360:	0e02 fe3e 0e3e 0002 3c18 187e 7e18 183c     ..>.>....<~..~<.
    1370:	6666 6666 0066 0066 db7f 7bdb 1b1b 001b     fffff.f....{....
    1380:	613e 663c 3c66 7c86 0000 0000 7e7e 007e     >a<ff<.|....~~~.
    1390:	3c18 187e 3c7e ff18 3c18 187e 1818 0018     .<~.~<...<~.....
    13a0:	1818 1818 3c7e 0018 1800 fe0c 180c 0000     ....~<..........
    13b0:	3000 fe60 3060 0000 0000 c0c0 fec0 0000     .0`.`0..........
    13c0:	2400 ff66 2466 0000 1800 7e3c ffff 0000     .$f.f$....<~....
    13d0:	ff00 7eff 183c 0000 0000 0000 0000 0000     ...~<...........
    13e0:	3c18 183c 0018 0018 6666 0024 0000 0000     .<<.....ff$.....
    13f0:	6c6c 6cfe 6cfe 006c 3e18 3c60 7c06 0018     ll.l.ll..>`<.|..
    1400:	c600 18cc 6630 00c6 6c38 7638 ccdc 0076     ....0f..8l8v..v.
    1410:	1818 0030 0000 0000 180c 3030 1830 000c     ..0.......000...
    1420:	1830 0c0c 180c 0030 6600 ff3c 663c 0000     0.....0..f<.<f..
    1430:	1800 7e18 1818 0000 0000 0000 1800 3018     ...~...........0
    1440:	0000 7e00 0000 0000 0000 0000 1800 0018     ...~............
    1450:	0c06 3018 c060 0080 6c38 d6c6 6cc6 0038     ...0`...8l...l8.
    1460:	3818 1818 1818 007e c67c 1c06 6630 00fe     .8....~.|...0f..
    1470:	c67c 3c06 c606 007c 3c1c cc6c 0cfe 001e     |..<..|..<l.....
    1480:	c0fe fcc0 c606 007c 6038 fcc0 c6c6 007c     ......|.8`....|.
    1490:	c6fe 180c 3030 0030 c67c 7cc6 c6c6 007c     ....000.|..|..|.
    14a0:	c67c 7ec6 0c06 0078 1800 0018 1800 0018     |..~..x.........
    14b0:	1800 0018 1800 3018 0c06 3018 0c18 0006     .......0...0....
    14c0:	0000 007e 7e00 0000 3060 0c18 3018 0060     ..~..~..`0...0`.
    14d0:	c67c 180c 0018 0018 c67c dede c0de 0078     |.......|.....x.
    14e0:	6c38 fec6 c6c6 00c6 66fc 7c66 6666 00fc     8l.......ff|ff..
    14f0:	663c c0c0 66c0 003c 6cf8 6666 6c66 00f8     <f...f<..lfffl..
    1500:	62fe 7868 6268 00fe 62fe 7868 6068 00f0     .bhxhb...bhxh`..
    1510:	663c c0c0 66ce 003a c6c6 fec6 c6c6 00c6     <f...f:.........
    1520:	183c 1818 1818 003c 0c1e 0c0c cccc 0078     <.....<.......x.
    1530:	66e6 786c 666c 00e6 60f0 6060 6662 00fe     .flxlf...```bf..
    1540:	eec6 fefe c6d6 00c6 e6c6 def6 c6ce 00c6     ................
    1550:	c67c c6c6 c6c6 007c 66fc 7c66 6060 00f0     |.....|..ff|``..
    1560:	c67c c6c6 cec6 0e7c 66fc 7c66 666c 00e6     |.....|..ff|lf..
    1570:	663c 1830 660c 003c 7e7e 185a 1818 003c     <f0..f<.~~Z...<.
    1580:	c6c6 c6c6 c6c6 007c c6c6 c6c6 6cc6 0038     ......|......l8.
    1590:	c6c6 d6c6 fed6 006c c6c6 386c c66c 00c6     ......l...l8l...
    15a0:	6666 3c66 1818 003c c6fe 188c 6632 00fe     fff<..<.....2f..
    15b0:	303c 3030 3030 003c 60c0 1830 060c 0002     <00000<..`0.....
    15c0:	0c3c 0c0c 0c0c 003c 3810 c66c 0000 0000     <.....<..8l.....
    15d0:	0000 0000 0000 ff00 1830 000c 0000 0000     ........0.......
    15e0:	0000 0c78 cc7c 0076 60e0 667c 6666 00dc     ..x.|.v..`|fff..
    15f0:	0000 c67c c6c0 007c 0c1c cc7c cccc 0076     ..|...|...|...v.
    1600:	0000 c67c c0fe 007c 663c f860 6060 00f0     ..|...|.<f`.``..
    1610:	0000 cc76 7ccc f80c 60e0 766c 6666 00e6     ..v..|...`lvff..
    1620:	0018 1838 1818 003c 0006 0606 6606 3c66     ..8...<......ff<
    1630:	60e0 6c66 6c78 00e6 1838 1818 1818 003c     .`flxl..8.....<.
    1640:	0000 feec d6d6 00d6 0000 66dc 6666 0066     ...........ffff.
    1650:	0000 c67c c6c6 007c 0000 66dc 7c66 f060     ..|...|....ff|`.
    1660:	0000 cc76 7ccc 1e0c 0000 76dc 6060 00f0     ..v..|.....v``..
    1670:	0000 c07e 067c 00fc 3030 30fc 3630 001c     ..~.|...00.006..
    1680:	0000 cccc cccc 0076 0000 c6c6 6cc6 0038     ......v......l8.
    1690:	0000 d6c6 fed6 006c 0000 6cc6 6c38 00c6     ......l....l8l..
    16a0:	0000 c6c6 7ec6 fc06 0000 4c7e 3218 007e     .....~....~L.2~.
    16b0:	180e 7018 1818 000e 1818 1818 1818 0018     ...p............
    16c0:	1870 0e18 1818 0070 dc76 0000 0000 0000     p.....p.v.......
    16d0:	1000 6c38 c6c6 00fe c67c c0c0 7cc6 780c     ..8l....|....|.x
    16e0:	00cc cccc cccc 0076 180c c67c c0fe 007c     ......v...|...|.
    16f0:	827c 0c78 cc7c 0076 00c6 0c78 cc7c 0076     |.x.|.v...x.|.v.
    1700:	1830 0c78 cc7c 0076 3030 0c78 cc7c 0076     0.x.|.v.00x.|.v.
    1710:	0000 c07e 7ec0 380c 827c c67c c0fe 007c     ..~..~.8|.|...|.
    1720:	00c6 c67c c0fe 007c 1830 c67c c0fe 007c     ..|...|.0.|...|.
    1730:	0066 1838 1818 003c 827c 1838 1818 003c     f.8...<.|.8...<.
    1740:	1830 3800 1818 003c 38c6 c66c c6fe 00c6     0..8..<..8l.....
    1750:	6c38 c67c c6fe 00c6 3018 c0fe c0f8 00fe     8l|......0......
    1760:	0000 187e d87e 007e 6c3e fecc cccc 00ce     ..~.~.~.>l......
    1770:	827c c67c c6c6 007c 00c6 c67c c6c6 007c     |.|...|...|...|.
    1780:	1830 c67c c6c6 007c 8478 cc00 cccc 0076     0.|...|.x.....v.
    1790:	3060 cccc cccc 0076 00c6 c6c6 7ec6 fc06     `0....v......~..
    17a0:	38c6 c66c 6cc6 0038 00c6 c6c6 c6c6 007c     .8l..l8.......|.
    17b0:	1818 c07e 7ec0 1818 6c38 f064 6660 00fc     ..~..~..8ld.`f..
    17c0:	6666 7e3c 7e18 1818 ccf8 facc cfc6 c7c6     ff<~.~..........
    17d0:	1b0e 3c18 d818 0070 3018 0c78 cc7c 0076     ...<..p..0x.|.v.
    17e0:	180c 3800 1818 003c 180c c67c c6c6 007c     ...8..<...|...|.
    17f0:	3018 cccc cccc 0076 dc76 dc00 6666 0066     .0....v.v...fff.
    1800:	dc76 e600 def6 00ce 6c3c 3e6c 7e00 0000     v.......<ll>.~..
    1810:	6c38 386c 7c00 0000 0018 1818 6330 003e     8ll8.|......0c>.
    1820:	0000 fe00 c0c0 0000 0000 fe00 0606 0000     ................
    1830:	e663 7e6c 6633 0fcc e663 7a6c 6a36 06df     c.l~3f..c.lz6j..
    1840:	0018 1818 3c3c 0018 3300 cc66 3366 0000     ....<<...3f.f3..
    1850:	cc00 3366 cc66 0000 8822 8822 8822 8822     ..f3f...".".".".
    1860:	aa55 aa55 aa55 aa55 dd77 dd77 dd77 dd77     U.U.U.U.w.w.w.w.
    1870:	1818 1818 1818 1818 1818 1818 18f8 1818     ................
    1880:	1818 18f8 18f8 1818 3636 3636 36f6 3636     ........6666.666
    1890:	0000 0000 36fe 3636 0000 18f8 18f8 1818     .....666........
    18a0:	3636 06f6 36f6 3636 3636 3636 3636 3636     66...66666666666
    18b0:	0000 06fe 36f6 3636 3636 06f6 00fe 0000     .....66666......
    18c0:	3636 3636 00fe 0000 1818 18f8 00f8 0000     6666............
    18d0:	0000 0000 18f8 1818 1818 1818 001f 0000     ................
    18e0:	1818 1818 00ff 0000 0000 0000 18ff 1818     ................
    18f0:	1818 1818 181f 1818 0000 0000 00ff 0000     ................
    1900:	1818 1818 18ff 1818 1818 181f 181f 1818     ................
    1910:	3636 3636 3637 3636 3636 3037 003f 0000     666676666670?...
    1920:	0000 303f 3637 3636 3636 00f7 00ff 0000     ..?0766666......
    1930:	0000 00ff 36f7 3636 3636 3037 3637 3636     .....66666707666
    1940:	0000 00ff 00ff 0000 3636 00f7 36f7 3636     ........66...666
    1950:	1818 00ff 00ff 0000 3636 3636 00ff 0000     ........6666....
    1960:	0000 00ff 18ff 1818 0000 0000 36ff 3636     .............666
    1970:	3636 3636 003f 0000 1818 181f 001f 0000     6666?...........
    1980:	0000 181f 181f 1818 0000 0000 363f 3636     ............?666
    1990:	3636 3636 36ff 3636 1818 18ff 18ff 1818     6666.666........
    19a0:	1818 1818 00f8 0000 0000 0000 181f 1818     ................
    19b0:	ffff ffff ffff ffff 0000 0000 ffff ffff     ................
    19c0:	f0f0 f0f0 f0f0 f0f0 0f0f 0f0f 0f0f 0f0f     ................
    19d0:	ffff ffff 0000 0000 0000 dc76 dcc8 0076     ..........v...v.
    19e0:	cc78 d8cc c6cc 00cc c6fe c0c0 c0c0 00c0     x...............
    19f0:	0000 6cfe 6c6c 006c c6fe 3060 c660 00fe     ...llll...`0`...
    1a00:	0000 d87e d8d8 0070 0000 6666 6666 c07c     ..~...p...ffff|.
    1a10:	7600 18dc 1818 0018 187e 663c 3c66 7e18     .v......~.<ff<.~
    1a20:	6c38 fec6 6cc6 0038 6c38 c6c6 6c6c 00ee     8l...l8.8l..ll..
    1a30:	180e 3e0c 6666 003c 0000 db7e 7edb 0000     ...>ff<...~..~..
    1a40:	0c06 db7e 7edb c060 301e 7e60 3060 001e     ..~..~`..0`~`0..
    1a50:	7c00 c6c6 c6c6 00c6 fe00 fe00 fe00 0000     .|..............
    1a60:	1818 187e 0018 007e 1830 180c 0030 007e     ..~...~.0...0.~.
    1a70:	180c 1830 000c 007e 1b0e 181b 1818 1818     ..0...~.........
    1a80:	1818 1818 d818 70d8 1800 7e00 1800 0000     .......p...~....
    1a90:	7600 00dc dc76 0000 6c38 386c 0000 0000     .v..v...8ll8....
    1aa0:	0000 1800 0018 0000 0000 1800 0000 0000     ................
    1ab0:	0c0f 0c0c 6cec 1c3c 366c 3636 0036 0000     .....l<.l6666...
    1ac0:	0c78 3018 007c 0000 0000 3c3c 3c3c 0000     x..0|.....<<<<..
	...

00001ad8 <car>:
	...
    1ae0:	0000 007c 7c00 0000 007c ff03 03c0 c0ff     ..|..|..|.......
    1af0:	ff03 00c0 c07f 7f00 00c0 c07f 7c00 0040     .............|@.
    1b00:	407c 7c00 0340 40fc ff03 03c0 00fc 7c00     |@.|@..@.......|
    1b10:	0000 0074 7c00 0000 0000 0000 0000 0000     ..t..|..........

00001b20 <newt_right>:
    1b20:	0000 0000 0000 f00f 0f00 00f0 3c3c 3c00     ............<<.<
    1b30:	003c 00f0 f0c0 c000 03f3 f30f 0f03 c3fc     <...............
    1b40:	fc3f 3fc3 ff3f 3fff ffff ff00 00f0 f0ff     ?..??..?........
    1b50:	c003 033c 3cc0 0000 0000 0000 0000 0000     ..<..<..........
	...

00001b68 <newt_left>:
	...
    1b78:	0000 c003 033c 3cc0 ff00 00f0 f0ff ff3f     ....<..<......?.
    1b88:	3fff ffff c3fc fc3f 3fc3 03f3 f30f 0f03     .?....?..?......
    1b98:	00f0 f0c0 c000 3c3c 3c00 003c f00f 0f00     ......<<.<<.....
    1ba8:	00f0 0000 0000 0000                         ........
